
timer:     file format elf32-littleriscv


Disassembly of section .text:

000100b4 <exit>:
   100b4:	ff010113          	addi	sp,sp,-16
   100b8:	00000593          	li	a1,0
   100bc:	00812423          	sw	s0,8(sp)
   100c0:	00112623          	sw	ra,12(sp)
   100c4:	00050413          	mv	s0,a0
   100c8:	371000ef          	jal	10c38 <__call_exitprocs>
   100cc:	f181a783          	lw	a5,-232(gp) # 23728 <__stdio_exit_handler>
   100d0:	00078463          	beqz	a5,100d8 <exit+0x24>
   100d4:	000780e7          	jalr	a5
   100d8:	00040513          	mv	a0,s0
   100dc:	3a80c0ef          	jal	1c484 <_exit>

000100e0 <main>:
   100e0:	fd010113          	addi	sp,sp,-48
   100e4:	00000593          	li	a1,0
   100e8:	00010513          	mv	a0,sp
   100ec:	02112623          	sw	ra,44(sp)
   100f0:	02812423          	sw	s0,40(sp)
   100f4:	255000ef          	jal	10b48 <gettimeofday>
   100f8:	00051c63          	bnez	a0,10110 <main+0x30>
   100fc:	19300893          	li	a7,403
   10100:	01010593          	addi	a1,sp,16
   10104:	00000073          	ecall
   10108:	00050413          	mv	s0,a0
   1010c:	00050e63          	beqz	a0,10128 <main+0x48>
   10110:	00100413          	li	s0,1
   10114:	02c12083          	lw	ra,44(sp)
   10118:	00040513          	mv	a0,s0
   1011c:	02812403          	lw	s0,40(sp)
   10120:	03010113          	addi	sp,sp,48
   10124:	00008067          	ret
   10128:	00812703          	lw	a4,8(sp)
   1012c:	00012603          	lw	a2,0(sp)
   10130:	00412683          	lw	a3,4(sp)
   10134:	41f75793          	srai	a5,a4,0x1f
   10138:	00012517          	auipc	a0,0x12
   1013c:	2b850513          	addi	a0,a0,696 # 223f0 <__clzsi2+0x50>
   10140:	550000ef          	jal	10690 <printf>
   10144:	01812703          	lw	a4,24(sp)
   10148:	01c12783          	lw	a5,28(sp)
   1014c:	01012603          	lw	a2,16(sp)
   10150:	01412683          	lw	a3,20(sp)
   10154:	00012517          	auipc	a0,0x12
   10158:	2c050513          	addi	a0,a0,704 # 22414 <__clzsi2+0x74>
   1015c:	534000ef          	jal	10690 <printf>
   10160:	fb5ff06f          	j	10114 <main+0x34>

00010164 <register_fini>:
   10164:	00000793          	li	a5,0
   10168:	00078863          	beqz	a5,10178 <register_fini+0x14>
   1016c:	00016537          	lui	a0,0x16
   10170:	a6450513          	addi	a0,a0,-1436 # 15a64 <__libc_fini_array>
   10174:	3f90006f          	j	10d6c <atexit>
   10178:	00008067          	ret

0001017c <_start>:
   1017c:	00013197          	auipc	gp,0x13
   10180:	69418193          	addi	gp,gp,1684 # 23810 <__global_pointer$>
   10184:	f1818513          	addi	a0,gp,-232 # 23728 <__stdio_exit_handler>
   10188:	24418613          	addi	a2,gp,580 # 23a54 <__BSS_END__>
   1018c:	40a60633          	sub	a2,a2,a0
   10190:	00000593          	li	a1,0
   10194:	1c9000ef          	jal	10b5c <memset>
   10198:	00001517          	auipc	a0,0x1
   1019c:	bd450513          	addi	a0,a0,-1068 # 10d6c <atexit>
   101a0:	00050863          	beqz	a0,101b0 <_start+0x34>
   101a4:	00006517          	auipc	a0,0x6
   101a8:	8c050513          	addi	a0,a0,-1856 # 15a64 <__libc_fini_array>
   101ac:	3c1000ef          	jal	10d6c <atexit>
   101b0:	0fd000ef          	jal	10aac <__libc_init_array>
   101b4:	00012503          	lw	a0,0(sp)
   101b8:	00410593          	addi	a1,sp,4
   101bc:	00000613          	li	a2,0
   101c0:	f21ff0ef          	jal	100e0 <main>
   101c4:	ef1ff06f          	j	100b4 <exit>

000101c8 <__do_global_dtors_aux>:
   101c8:	ff010113          	addi	sp,sp,-16
   101cc:	00812423          	sw	s0,8(sp)
   101d0:	f381c783          	lbu	a5,-200(gp) # 23748 <completed.1>
   101d4:	00112623          	sw	ra,12(sp)
   101d8:	02079263          	bnez	a5,101fc <__do_global_dtors_aux+0x34>
   101dc:	00000793          	li	a5,0
   101e0:	00078a63          	beqz	a5,101f4 <__do_global_dtors_aux+0x2c>
   101e4:	00023537          	lui	a0,0x23
   101e8:	cbc50513          	addi	a0,a0,-836 # 22cbc <__EH_FRAME_BEGIN__>
   101ec:	00000097          	auipc	ra,0x0
   101f0:	000000e7          	jalr	zero # 0 <exit-0x100b4>
   101f4:	00100793          	li	a5,1
   101f8:	f2f18c23          	sb	a5,-200(gp) # 23748 <completed.1>
   101fc:	00c12083          	lw	ra,12(sp)
   10200:	00812403          	lw	s0,8(sp)
   10204:	01010113          	addi	sp,sp,16
   10208:	00008067          	ret

0001020c <frame_dummy>:
   1020c:	00000793          	li	a5,0
   10210:	00078c63          	beqz	a5,10228 <frame_dummy+0x1c>
   10214:	00023537          	lui	a0,0x23
   10218:	f3c18593          	addi	a1,gp,-196 # 2374c <object.0>
   1021c:	cbc50513          	addi	a0,a0,-836 # 22cbc <__EH_FRAME_BEGIN__>
   10220:	00000317          	auipc	t1,0x0
   10224:	00000067          	jr	zero # 0 <exit-0x100b4>
   10228:	00008067          	ret

0001022c <__fp_lock>:
   1022c:	00000513          	li	a0,0
   10230:	00008067          	ret

00010234 <stdio_exit_handler>:
   10234:	00023637          	lui	a2,0x23
   10238:	000155b7          	lui	a1,0x15
   1023c:	00023537          	lui	a0,0x23
   10240:	01060613          	addi	a2,a2,16 # 23010 <__sglue>
   10244:	d4058593          	addi	a1,a1,-704 # 14d40 <_fclose_r>
   10248:	02050513          	addi	a0,a0,32 # 23020 <_impure_data>
   1024c:	3480006f          	j	10594 <_fwalk_sglue>

00010250 <cleanup_stdio>:
   10250:	00452583          	lw	a1,4(a0)
   10254:	ff010113          	addi	sp,sp,-16
   10258:	00812423          	sw	s0,8(sp)
   1025c:	00112623          	sw	ra,12(sp)
   10260:	f5418793          	addi	a5,gp,-172 # 23764 <__sf>
   10264:	00050413          	mv	s0,a0
   10268:	00f58463          	beq	a1,a5,10270 <cleanup_stdio+0x20>
   1026c:	2d5040ef          	jal	14d40 <_fclose_r>
   10270:	00842583          	lw	a1,8(s0)
   10274:	fbc18793          	addi	a5,gp,-68 # 237cc <__sf+0x68>
   10278:	00f58663          	beq	a1,a5,10284 <cleanup_stdio+0x34>
   1027c:	00040513          	mv	a0,s0
   10280:	2c1040ef          	jal	14d40 <_fclose_r>
   10284:	00c42583          	lw	a1,12(s0)
   10288:	02418793          	addi	a5,gp,36 # 23834 <__global_pointer$+0x24>
   1028c:	00f58c63          	beq	a1,a5,102a4 <cleanup_stdio+0x54>
   10290:	00040513          	mv	a0,s0
   10294:	00812403          	lw	s0,8(sp)
   10298:	00c12083          	lw	ra,12(sp)
   1029c:	01010113          	addi	sp,sp,16
   102a0:	2a10406f          	j	14d40 <_fclose_r>
   102a4:	00c12083          	lw	ra,12(sp)
   102a8:	00812403          	lw	s0,8(sp)
   102ac:	01010113          	addi	sp,sp,16
   102b0:	00008067          	ret

000102b4 <__fp_unlock>:
   102b4:	00000513          	li	a0,0
   102b8:	00008067          	ret

000102bc <global_stdio_init.part.0>:
   102bc:	fe010113          	addi	sp,sp,-32
   102c0:	00812c23          	sw	s0,24(sp)
   102c4:	000107b7          	lui	a5,0x10
   102c8:	f5418413          	addi	s0,gp,-172 # 23764 <__sf>
   102cc:	00112e23          	sw	ra,28(sp)
   102d0:	00912a23          	sw	s1,20(sp)
   102d4:	01212823          	sw	s2,16(sp)
   102d8:	01312623          	sw	s3,12(sp)
   102dc:	01412423          	sw	s4,8(sp)
   102e0:	00400713          	li	a4,4
   102e4:	23478793          	addi	a5,a5,564 # 10234 <stdio_exit_handler>
   102e8:	00800613          	li	a2,8
   102ec:	00000593          	li	a1,0
   102f0:	fb018513          	addi	a0,gp,-80 # 237c0 <__sf+0x5c>
   102f4:	f0f1ac23          	sw	a5,-232(gp) # 23728 <__stdio_exit_handler>
   102f8:	00e42623          	sw	a4,12(s0)
   102fc:	00042023          	sw	zero,0(s0)
   10300:	00042223          	sw	zero,4(s0)
   10304:	00042423          	sw	zero,8(s0)
   10308:	06042223          	sw	zero,100(s0)
   1030c:	00042823          	sw	zero,16(s0)
   10310:	00042a23          	sw	zero,20(s0)
   10314:	00042c23          	sw	zero,24(s0)
   10318:	045000ef          	jal	10b5c <memset>
   1031c:	000107b7          	lui	a5,0x10
   10320:	00010a37          	lui	s4,0x10
   10324:	000109b7          	lui	s3,0x10
   10328:	00010937          	lui	s2,0x10
   1032c:	000114b7          	lui	s1,0x11
   10330:	6dca0a13          	addi	s4,s4,1756 # 106dc <__sread>
   10334:	74098993          	addi	s3,s3,1856 # 10740 <__swrite>
   10338:	7c890913          	addi	s2,s2,1992 # 107c8 <__sseek>
   1033c:	82c48493          	addi	s1,s1,-2004 # 1082c <__sclose>
   10340:	00978793          	addi	a5,a5,9 # 10009 <exit-0xab>
   10344:	00800613          	li	a2,8
   10348:	00000593          	li	a1,0
   1034c:	01818513          	addi	a0,gp,24 # 23828 <__global_pointer$+0x18>
   10350:	06f42a23          	sw	a5,116(s0)
   10354:	03442023          	sw	s4,32(s0)
   10358:	03342223          	sw	s3,36(s0)
   1035c:	03242423          	sw	s2,40(s0)
   10360:	02942623          	sw	s1,44(s0)
   10364:	00842e23          	sw	s0,28(s0)
   10368:	06042423          	sw	zero,104(s0)
   1036c:	06042623          	sw	zero,108(s0)
   10370:	06042823          	sw	zero,112(s0)
   10374:	0c042623          	sw	zero,204(s0)
   10378:	06042c23          	sw	zero,120(s0)
   1037c:	06042e23          	sw	zero,124(s0)
   10380:	08042023          	sw	zero,128(s0)
   10384:	7d8000ef          	jal	10b5c <memset>
   10388:	000207b7          	lui	a5,0x20
   1038c:	01278793          	addi	a5,a5,18 # 20012 <__multf3+0x9ae>
   10390:	fbc18713          	addi	a4,gp,-68 # 237cc <__sf+0x68>
   10394:	08018513          	addi	a0,gp,128 # 23890 <__global_pointer$+0x80>
   10398:	00800613          	li	a2,8
   1039c:	00000593          	li	a1,0
   103a0:	09442423          	sw	s4,136(s0)
   103a4:	09342623          	sw	s3,140(s0)
   103a8:	09242823          	sw	s2,144(s0)
   103ac:	08942a23          	sw	s1,148(s0)
   103b0:	0cf42e23          	sw	a5,220(s0)
   103b4:	0c042823          	sw	zero,208(s0)
   103b8:	0c042a23          	sw	zero,212(s0)
   103bc:	0c042c23          	sw	zero,216(s0)
   103c0:	12042a23          	sw	zero,308(s0)
   103c4:	0e042023          	sw	zero,224(s0)
   103c8:	0e042223          	sw	zero,228(s0)
   103cc:	0e042423          	sw	zero,232(s0)
   103d0:	08e42223          	sw	a4,132(s0)
   103d4:	788000ef          	jal	10b5c <memset>
   103d8:	02418793          	addi	a5,gp,36 # 23834 <__global_pointer$+0x24>
   103dc:	0f442823          	sw	s4,240(s0)
   103e0:	0f342a23          	sw	s3,244(s0)
   103e4:	0f242c23          	sw	s2,248(s0)
   103e8:	0e942e23          	sw	s1,252(s0)
   103ec:	01c12083          	lw	ra,28(sp)
   103f0:	0ef42623          	sw	a5,236(s0)
   103f4:	01812403          	lw	s0,24(sp)
   103f8:	01412483          	lw	s1,20(sp)
   103fc:	01012903          	lw	s2,16(sp)
   10400:	00c12983          	lw	s3,12(sp)
   10404:	00812a03          	lw	s4,8(sp)
   10408:	02010113          	addi	sp,sp,32
   1040c:	00008067          	ret

00010410 <__sfp>:
   10410:	f181a783          	lw	a5,-232(gp) # 23728 <__stdio_exit_handler>
   10414:	fe010113          	addi	sp,sp,-32
   10418:	01312623          	sw	s3,12(sp)
   1041c:	00112e23          	sw	ra,28(sp)
   10420:	00812c23          	sw	s0,24(sp)
   10424:	00912a23          	sw	s1,20(sp)
   10428:	01212823          	sw	s2,16(sp)
   1042c:	00050993          	mv	s3,a0
   10430:	0e078863          	beqz	a5,10520 <__sfp+0x110>
   10434:	00023937          	lui	s2,0x23
   10438:	01090913          	addi	s2,s2,16 # 23010 <__sglue>
   1043c:	fff00493          	li	s1,-1
   10440:	00492783          	lw	a5,4(s2)
   10444:	00892403          	lw	s0,8(s2)
   10448:	fff78793          	addi	a5,a5,-1
   1044c:	0007d863          	bgez	a5,1045c <__sfp+0x4c>
   10450:	0800006f          	j	104d0 <__sfp+0xc0>
   10454:	06840413          	addi	s0,s0,104
   10458:	06978c63          	beq	a5,s1,104d0 <__sfp+0xc0>
   1045c:	00c41703          	lh	a4,12(s0)
   10460:	fff78793          	addi	a5,a5,-1
   10464:	fe0718e3          	bnez	a4,10454 <__sfp+0x44>
   10468:	ffff07b7          	lui	a5,0xffff0
   1046c:	00178793          	addi	a5,a5,1 # ffff0001 <__BSS_END__+0xfffcc5ad>
   10470:	06042223          	sw	zero,100(s0)
   10474:	00042023          	sw	zero,0(s0)
   10478:	00042423          	sw	zero,8(s0)
   1047c:	00042223          	sw	zero,4(s0)
   10480:	00042823          	sw	zero,16(s0)
   10484:	00042a23          	sw	zero,20(s0)
   10488:	00042c23          	sw	zero,24(s0)
   1048c:	00f42623          	sw	a5,12(s0)
   10490:	00800613          	li	a2,8
   10494:	00000593          	li	a1,0
   10498:	05c40513          	addi	a0,s0,92
   1049c:	6c0000ef          	jal	10b5c <memset>
   104a0:	02042823          	sw	zero,48(s0)
   104a4:	02042a23          	sw	zero,52(s0)
   104a8:	04042223          	sw	zero,68(s0)
   104ac:	04042423          	sw	zero,72(s0)
   104b0:	01c12083          	lw	ra,28(sp)
   104b4:	00040513          	mv	a0,s0
   104b8:	01812403          	lw	s0,24(sp)
   104bc:	01412483          	lw	s1,20(sp)
   104c0:	01012903          	lw	s2,16(sp)
   104c4:	00c12983          	lw	s3,12(sp)
   104c8:	02010113          	addi	sp,sp,32
   104cc:	00008067          	ret
   104d0:	00092403          	lw	s0,0(s2)
   104d4:	00040663          	beqz	s0,104e0 <__sfp+0xd0>
   104d8:	00040913          	mv	s2,s0
   104dc:	f65ff06f          	j	10440 <__sfp+0x30>
   104e0:	1ac00593          	li	a1,428
   104e4:	00098513          	mv	a0,s3
   104e8:	4c1000ef          	jal	111a8 <_malloc_r>
   104ec:	00050413          	mv	s0,a0
   104f0:	02050c63          	beqz	a0,10528 <__sfp+0x118>
   104f4:	00400793          	li	a5,4
   104f8:	00c50513          	addi	a0,a0,12
   104fc:	00042023          	sw	zero,0(s0)
   10500:	00f42223          	sw	a5,4(s0)
   10504:	00a42423          	sw	a0,8(s0)
   10508:	1a000613          	li	a2,416
   1050c:	00000593          	li	a1,0
   10510:	64c000ef          	jal	10b5c <memset>
   10514:	00892023          	sw	s0,0(s2)
   10518:	00040913          	mv	s2,s0
   1051c:	f25ff06f          	j	10440 <__sfp+0x30>
   10520:	d9dff0ef          	jal	102bc <global_stdio_init.part.0>
   10524:	f11ff06f          	j	10434 <__sfp+0x24>
   10528:	00092023          	sw	zero,0(s2)
   1052c:	00c00793          	li	a5,12
   10530:	00f9a023          	sw	a5,0(s3)
   10534:	f7dff06f          	j	104b0 <__sfp+0xa0>

00010538 <__sinit>:
   10538:	03452783          	lw	a5,52(a0)
   1053c:	00078463          	beqz	a5,10544 <__sinit+0xc>
   10540:	00008067          	ret
   10544:	000107b7          	lui	a5,0x10
   10548:	f181a703          	lw	a4,-232(gp) # 23728 <__stdio_exit_handler>
   1054c:	25078793          	addi	a5,a5,592 # 10250 <cleanup_stdio>
   10550:	02f52a23          	sw	a5,52(a0)
   10554:	fe0716e3          	bnez	a4,10540 <__sinit+0x8>
   10558:	d65ff06f          	j	102bc <global_stdio_init.part.0>

0001055c <__sfp_lock_acquire>:
   1055c:	00008067          	ret

00010560 <__sfp_lock_release>:
   10560:	00008067          	ret

00010564 <__fp_lock_all>:
   10564:	00023637          	lui	a2,0x23
   10568:	000105b7          	lui	a1,0x10
   1056c:	01060613          	addi	a2,a2,16 # 23010 <__sglue>
   10570:	22c58593          	addi	a1,a1,556 # 1022c <__fp_lock>
   10574:	00000513          	li	a0,0
   10578:	01c0006f          	j	10594 <_fwalk_sglue>

0001057c <__fp_unlock_all>:
   1057c:	00023637          	lui	a2,0x23
   10580:	000105b7          	lui	a1,0x10
   10584:	01060613          	addi	a2,a2,16 # 23010 <__sglue>
   10588:	2b458593          	addi	a1,a1,692 # 102b4 <__fp_unlock>
   1058c:	00000513          	li	a0,0
   10590:	0040006f          	j	10594 <_fwalk_sglue>

00010594 <_fwalk_sglue>:
   10594:	fd010113          	addi	sp,sp,-48
   10598:	03212023          	sw	s2,32(sp)
   1059c:	01312e23          	sw	s3,28(sp)
   105a0:	01412c23          	sw	s4,24(sp)
   105a4:	01512a23          	sw	s5,20(sp)
   105a8:	01612823          	sw	s6,16(sp)
   105ac:	01712623          	sw	s7,12(sp)
   105b0:	02112623          	sw	ra,44(sp)
   105b4:	02812423          	sw	s0,40(sp)
   105b8:	02912223          	sw	s1,36(sp)
   105bc:	00050b13          	mv	s6,a0
   105c0:	00058b93          	mv	s7,a1
   105c4:	00060a93          	mv	s5,a2
   105c8:	00000a13          	li	s4,0
   105cc:	00100993          	li	s3,1
   105d0:	fff00913          	li	s2,-1
   105d4:	004aa483          	lw	s1,4(s5)
   105d8:	008aa403          	lw	s0,8(s5)
   105dc:	fff48493          	addi	s1,s1,-1
   105e0:	0204c863          	bltz	s1,10610 <_fwalk_sglue+0x7c>
   105e4:	00c45783          	lhu	a5,12(s0)
   105e8:	00f9fe63          	bgeu	s3,a5,10604 <_fwalk_sglue+0x70>
   105ec:	00e41783          	lh	a5,14(s0)
   105f0:	00040593          	mv	a1,s0
   105f4:	000b0513          	mv	a0,s6
   105f8:	01278663          	beq	a5,s2,10604 <_fwalk_sglue+0x70>
   105fc:	000b80e7          	jalr	s7
   10600:	00aa6a33          	or	s4,s4,a0
   10604:	fff48493          	addi	s1,s1,-1
   10608:	06840413          	addi	s0,s0,104
   1060c:	fd249ce3          	bne	s1,s2,105e4 <_fwalk_sglue+0x50>
   10610:	000aaa83          	lw	s5,0(s5)
   10614:	fc0a90e3          	bnez	s5,105d4 <_fwalk_sglue+0x40>
   10618:	02c12083          	lw	ra,44(sp)
   1061c:	02812403          	lw	s0,40(sp)
   10620:	02412483          	lw	s1,36(sp)
   10624:	02012903          	lw	s2,32(sp)
   10628:	01c12983          	lw	s3,28(sp)
   1062c:	01412a83          	lw	s5,20(sp)
   10630:	01012b03          	lw	s6,16(sp)
   10634:	00c12b83          	lw	s7,12(sp)
   10638:	000a0513          	mv	a0,s4
   1063c:	01812a03          	lw	s4,24(sp)
   10640:	03010113          	addi	sp,sp,48
   10644:	00008067          	ret

00010648 <_printf_r>:
   10648:	fc010113          	addi	sp,sp,-64
   1064c:	00058e13          	mv	t3,a1
   10650:	00852583          	lw	a1,8(a0)
   10654:	02810313          	addi	t1,sp,40
   10658:	02c12423          	sw	a2,40(sp)
   1065c:	02d12623          	sw	a3,44(sp)
   10660:	000e0613          	mv	a2,t3
   10664:	00030693          	mv	a3,t1
   10668:	00112e23          	sw	ra,28(sp)
   1066c:	02e12823          	sw	a4,48(sp)
   10670:	02f12a23          	sw	a5,52(sp)
   10674:	03012c23          	sw	a6,56(sp)
   10678:	03112e23          	sw	a7,60(sp)
   1067c:	00612623          	sw	t1,12(sp)
   10680:	338010ef          	jal	119b8 <_vfprintf_r>
   10684:	01c12083          	lw	ra,28(sp)
   10688:	04010113          	addi	sp,sp,64
   1068c:	00008067          	ret

00010690 <printf>:
   10690:	f0c1a303          	lw	t1,-244(gp) # 2371c <_impure_ptr>
   10694:	fc010113          	addi	sp,sp,-64
   10698:	02c12423          	sw	a2,40(sp)
   1069c:	02d12623          	sw	a3,44(sp)
   106a0:	02b12223          	sw	a1,36(sp)
   106a4:	02e12823          	sw	a4,48(sp)
   106a8:	02f12a23          	sw	a5,52(sp)
   106ac:	03012c23          	sw	a6,56(sp)
   106b0:	03112e23          	sw	a7,60(sp)
   106b4:	00832583          	lw	a1,8(t1) # 10228 <frame_dummy+0x1c>
   106b8:	02410693          	addi	a3,sp,36
   106bc:	00050613          	mv	a2,a0
   106c0:	00030513          	mv	a0,t1
   106c4:	00112e23          	sw	ra,28(sp)
   106c8:	00d12623          	sw	a3,12(sp)
   106cc:	2ec010ef          	jal	119b8 <_vfprintf_r>
   106d0:	01c12083          	lw	ra,28(sp)
   106d4:	04010113          	addi	sp,sp,64
   106d8:	00008067          	ret

000106dc <__sread>:
   106dc:	ff010113          	addi	sp,sp,-16
   106e0:	00812423          	sw	s0,8(sp)
   106e4:	00058413          	mv	s0,a1
   106e8:	00e59583          	lh	a1,14(a1)
   106ec:	00112623          	sw	ra,12(sp)
   106f0:	2ec000ef          	jal	109dc <_read_r>
   106f4:	02054063          	bltz	a0,10714 <__sread+0x38>
   106f8:	05042783          	lw	a5,80(s0)
   106fc:	00c12083          	lw	ra,12(sp)
   10700:	00a787b3          	add	a5,a5,a0
   10704:	04f42823          	sw	a5,80(s0)
   10708:	00812403          	lw	s0,8(sp)
   1070c:	01010113          	addi	sp,sp,16
   10710:	00008067          	ret
   10714:	00c45783          	lhu	a5,12(s0)
   10718:	fffff737          	lui	a4,0xfffff
   1071c:	fff70713          	addi	a4,a4,-1 # ffffefff <__BSS_END__+0xfffdb5ab>
   10720:	00e7f7b3          	and	a5,a5,a4
   10724:	00c12083          	lw	ra,12(sp)
   10728:	00f41623          	sh	a5,12(s0)
   1072c:	00812403          	lw	s0,8(sp)
   10730:	01010113          	addi	sp,sp,16
   10734:	00008067          	ret

00010738 <__seofread>:
   10738:	00000513          	li	a0,0
   1073c:	00008067          	ret

00010740 <__swrite>:
   10740:	00c59783          	lh	a5,12(a1)
   10744:	fe010113          	addi	sp,sp,-32
   10748:	00812c23          	sw	s0,24(sp)
   1074c:	00912a23          	sw	s1,20(sp)
   10750:	01212823          	sw	s2,16(sp)
   10754:	01312623          	sw	s3,12(sp)
   10758:	00112e23          	sw	ra,28(sp)
   1075c:	1007f713          	andi	a4,a5,256
   10760:	00058413          	mv	s0,a1
   10764:	00060913          	mv	s2,a2
   10768:	00068993          	mv	s3,a3
   1076c:	00050493          	mv	s1,a0
   10770:	04071063          	bnez	a4,107b0 <__swrite+0x70>
   10774:	fffff737          	lui	a4,0xfffff
   10778:	fff70713          	addi	a4,a4,-1 # ffffefff <__BSS_END__+0xfffdb5ab>
   1077c:	00e7f7b3          	and	a5,a5,a4
   10780:	00e41583          	lh	a1,14(s0)
   10784:	00f41623          	sh	a5,12(s0)
   10788:	01812403          	lw	s0,24(sp)
   1078c:	01c12083          	lw	ra,28(sp)
   10790:	00098693          	mv	a3,s3
   10794:	00090613          	mv	a2,s2
   10798:	00c12983          	lw	s3,12(sp)
   1079c:	01012903          	lw	s2,16(sp)
   107a0:	00048513          	mv	a0,s1
   107a4:	01412483          	lw	s1,20(sp)
   107a8:	02010113          	addi	sp,sp,32
   107ac:	2980006f          	j	10a44 <_write_r>
   107b0:	00e59583          	lh	a1,14(a1)
   107b4:	00200693          	li	a3,2
   107b8:	00000613          	li	a2,0
   107bc:	1b8000ef          	jal	10974 <_lseek_r>
   107c0:	00c41783          	lh	a5,12(s0)
   107c4:	fb1ff06f          	j	10774 <__swrite+0x34>

000107c8 <__sseek>:
   107c8:	ff010113          	addi	sp,sp,-16
   107cc:	00812423          	sw	s0,8(sp)
   107d0:	00058413          	mv	s0,a1
   107d4:	00e59583          	lh	a1,14(a1)
   107d8:	00112623          	sw	ra,12(sp)
   107dc:	198000ef          	jal	10974 <_lseek_r>
   107e0:	fff00713          	li	a4,-1
   107e4:	00c41783          	lh	a5,12(s0)
   107e8:	02e50263          	beq	a0,a4,1080c <__sseek+0x44>
   107ec:	00001737          	lui	a4,0x1
   107f0:	00e7e7b3          	or	a5,a5,a4
   107f4:	00c12083          	lw	ra,12(sp)
   107f8:	04a42823          	sw	a0,80(s0)
   107fc:	00f41623          	sh	a5,12(s0)
   10800:	00812403          	lw	s0,8(sp)
   10804:	01010113          	addi	sp,sp,16
   10808:	00008067          	ret
   1080c:	fffff737          	lui	a4,0xfffff
   10810:	fff70713          	addi	a4,a4,-1 # ffffefff <__BSS_END__+0xfffdb5ab>
   10814:	00e7f7b3          	and	a5,a5,a4
   10818:	00c12083          	lw	ra,12(sp)
   1081c:	00f41623          	sh	a5,12(s0)
   10820:	00812403          	lw	s0,8(sp)
   10824:	01010113          	addi	sp,sp,16
   10828:	00008067          	ret

0001082c <__sclose>:
   1082c:	00e59583          	lh	a1,14(a1)
   10830:	0040006f          	j	10834 <_close_r>

00010834 <_close_r>:
   10834:	ff010113          	addi	sp,sp,-16
   10838:	00812423          	sw	s0,8(sp)
   1083c:	00912223          	sw	s1,4(sp)
   10840:	00050413          	mv	s0,a0
   10844:	00058513          	mv	a0,a1
   10848:	00112623          	sw	ra,12(sp)
   1084c:	f001ae23          	sw	zero,-228(gp) # 2372c <errno>
   10850:	3f10b0ef          	jal	1c440 <_close>
   10854:	fff00793          	li	a5,-1
   10858:	00f50c63          	beq	a0,a5,10870 <_close_r+0x3c>
   1085c:	00c12083          	lw	ra,12(sp)
   10860:	00812403          	lw	s0,8(sp)
   10864:	00412483          	lw	s1,4(sp)
   10868:	01010113          	addi	sp,sp,16
   1086c:	00008067          	ret
   10870:	f1c1a783          	lw	a5,-228(gp) # 2372c <errno>
   10874:	fe0784e3          	beqz	a5,1085c <_close_r+0x28>
   10878:	00c12083          	lw	ra,12(sp)
   1087c:	00f42023          	sw	a5,0(s0)
   10880:	00812403          	lw	s0,8(sp)
   10884:	00412483          	lw	s1,4(sp)
   10888:	01010113          	addi	sp,sp,16
   1088c:	00008067          	ret

00010890 <_reclaim_reent>:
   10890:	f0c1a783          	lw	a5,-244(gp) # 2371c <_impure_ptr>
   10894:	0ca78e63          	beq	a5,a0,10970 <_reclaim_reent+0xe0>
   10898:	04452583          	lw	a1,68(a0)
   1089c:	fe010113          	addi	sp,sp,-32
   108a0:	00912a23          	sw	s1,20(sp)
   108a4:	00112e23          	sw	ra,28(sp)
   108a8:	00812c23          	sw	s0,24(sp)
   108ac:	00050493          	mv	s1,a0
   108b0:	04058863          	beqz	a1,10900 <_reclaim_reent+0x70>
   108b4:	01212823          	sw	s2,16(sp)
   108b8:	01312623          	sw	s3,12(sp)
   108bc:	00000913          	li	s2,0
   108c0:	08000993          	li	s3,128
   108c4:	012587b3          	add	a5,a1,s2
   108c8:	0007a403          	lw	s0,0(a5)
   108cc:	00040e63          	beqz	s0,108e8 <_reclaim_reent+0x58>
   108d0:	00040593          	mv	a1,s0
   108d4:	00042403          	lw	s0,0(s0)
   108d8:	00048513          	mv	a0,s1
   108dc:	5dc000ef          	jal	10eb8 <_free_r>
   108e0:	fe0418e3          	bnez	s0,108d0 <_reclaim_reent+0x40>
   108e4:	0444a583          	lw	a1,68(s1)
   108e8:	00490913          	addi	s2,s2,4
   108ec:	fd391ce3          	bne	s2,s3,108c4 <_reclaim_reent+0x34>
   108f0:	00048513          	mv	a0,s1
   108f4:	5c4000ef          	jal	10eb8 <_free_r>
   108f8:	01012903          	lw	s2,16(sp)
   108fc:	00c12983          	lw	s3,12(sp)
   10900:	0384a583          	lw	a1,56(s1)
   10904:	00058663          	beqz	a1,10910 <_reclaim_reent+0x80>
   10908:	00048513          	mv	a0,s1
   1090c:	5ac000ef          	jal	10eb8 <_free_r>
   10910:	0404a403          	lw	s0,64(s1)
   10914:	00040c63          	beqz	s0,1092c <_reclaim_reent+0x9c>
   10918:	00040593          	mv	a1,s0
   1091c:	00042403          	lw	s0,0(s0)
   10920:	00048513          	mv	a0,s1
   10924:	594000ef          	jal	10eb8 <_free_r>
   10928:	fe0418e3          	bnez	s0,10918 <_reclaim_reent+0x88>
   1092c:	04c4a583          	lw	a1,76(s1)
   10930:	00058663          	beqz	a1,1093c <_reclaim_reent+0xac>
   10934:	00048513          	mv	a0,s1
   10938:	580000ef          	jal	10eb8 <_free_r>
   1093c:	0344a783          	lw	a5,52(s1)
   10940:	00078e63          	beqz	a5,1095c <_reclaim_reent+0xcc>
   10944:	01812403          	lw	s0,24(sp)
   10948:	01c12083          	lw	ra,28(sp)
   1094c:	00048513          	mv	a0,s1
   10950:	01412483          	lw	s1,20(sp)
   10954:	02010113          	addi	sp,sp,32
   10958:	00078067          	jr	a5
   1095c:	01c12083          	lw	ra,28(sp)
   10960:	01812403          	lw	s0,24(sp)
   10964:	01412483          	lw	s1,20(sp)
   10968:	02010113          	addi	sp,sp,32
   1096c:	00008067          	ret
   10970:	00008067          	ret

00010974 <_lseek_r>:
   10974:	ff010113          	addi	sp,sp,-16
   10978:	00058713          	mv	a4,a1
   1097c:	00812423          	sw	s0,8(sp)
   10980:	00912223          	sw	s1,4(sp)
   10984:	00060593          	mv	a1,a2
   10988:	00050413          	mv	s0,a0
   1098c:	00068613          	mv	a2,a3
   10990:	00070513          	mv	a0,a4
   10994:	00112623          	sw	ra,12(sp)
   10998:	f001ae23          	sw	zero,-228(gp) # 2372c <errno>
   1099c:	45d0b0ef          	jal	1c5f8 <_lseek>
   109a0:	fff00793          	li	a5,-1
   109a4:	00f50c63          	beq	a0,a5,109bc <_lseek_r+0x48>
   109a8:	00c12083          	lw	ra,12(sp)
   109ac:	00812403          	lw	s0,8(sp)
   109b0:	00412483          	lw	s1,4(sp)
   109b4:	01010113          	addi	sp,sp,16
   109b8:	00008067          	ret
   109bc:	f1c1a783          	lw	a5,-228(gp) # 2372c <errno>
   109c0:	fe0784e3          	beqz	a5,109a8 <_lseek_r+0x34>
   109c4:	00c12083          	lw	ra,12(sp)
   109c8:	00f42023          	sw	a5,0(s0)
   109cc:	00812403          	lw	s0,8(sp)
   109d0:	00412483          	lw	s1,4(sp)
   109d4:	01010113          	addi	sp,sp,16
   109d8:	00008067          	ret

000109dc <_read_r>:
   109dc:	ff010113          	addi	sp,sp,-16
   109e0:	00058713          	mv	a4,a1
   109e4:	00812423          	sw	s0,8(sp)
   109e8:	00912223          	sw	s1,4(sp)
   109ec:	00060593          	mv	a1,a2
   109f0:	00050413          	mv	s0,a0
   109f4:	00068613          	mv	a2,a3
   109f8:	00070513          	mv	a0,a4
   109fc:	00112623          	sw	ra,12(sp)
   10a00:	f001ae23          	sw	zero,-228(gp) # 2372c <errno>
   10a04:	4390b0ef          	jal	1c63c <_read>
   10a08:	fff00793          	li	a5,-1
   10a0c:	00f50c63          	beq	a0,a5,10a24 <_read_r+0x48>
   10a10:	00c12083          	lw	ra,12(sp)
   10a14:	00812403          	lw	s0,8(sp)
   10a18:	00412483          	lw	s1,4(sp)
   10a1c:	01010113          	addi	sp,sp,16
   10a20:	00008067          	ret
   10a24:	f1c1a783          	lw	a5,-228(gp) # 2372c <errno>
   10a28:	fe0784e3          	beqz	a5,10a10 <_read_r+0x34>
   10a2c:	00c12083          	lw	ra,12(sp)
   10a30:	00f42023          	sw	a5,0(s0)
   10a34:	00812403          	lw	s0,8(sp)
   10a38:	00412483          	lw	s1,4(sp)
   10a3c:	01010113          	addi	sp,sp,16
   10a40:	00008067          	ret

00010a44 <_write_r>:
   10a44:	ff010113          	addi	sp,sp,-16
   10a48:	00058713          	mv	a4,a1
   10a4c:	00812423          	sw	s0,8(sp)
   10a50:	00912223          	sw	s1,4(sp)
   10a54:	00060593          	mv	a1,a2
   10a58:	00050413          	mv	s0,a0
   10a5c:	00068613          	mv	a2,a3
   10a60:	00070513          	mv	a0,a4
   10a64:	00112623          	sw	ra,12(sp)
   10a68:	f001ae23          	sw	zero,-228(gp) # 2372c <errno>
   10a6c:	48d0b0ef          	jal	1c6f8 <_write>
   10a70:	fff00793          	li	a5,-1
   10a74:	00f50c63          	beq	a0,a5,10a8c <_write_r+0x48>
   10a78:	00c12083          	lw	ra,12(sp)
   10a7c:	00812403          	lw	s0,8(sp)
   10a80:	00412483          	lw	s1,4(sp)
   10a84:	01010113          	addi	sp,sp,16
   10a88:	00008067          	ret
   10a8c:	f1c1a783          	lw	a5,-228(gp) # 2372c <errno>
   10a90:	fe0784e3          	beqz	a5,10a78 <_write_r+0x34>
   10a94:	00c12083          	lw	ra,12(sp)
   10a98:	00f42023          	sw	a5,0(s0)
   10a9c:	00812403          	lw	s0,8(sp)
   10aa0:	00412483          	lw	s1,4(sp)
   10aa4:	01010113          	addi	sp,sp,16
   10aa8:	00008067          	ret

00010aac <__libc_init_array>:
   10aac:	ff010113          	addi	sp,sp,-16
   10ab0:	00812423          	sw	s0,8(sp)
   10ab4:	000237b7          	lui	a5,0x23
   10ab8:	00023437          	lui	s0,0x23
   10abc:	01212023          	sw	s2,0(sp)
   10ac0:	00078793          	mv	a5,a5
   10ac4:	00040713          	mv	a4,s0
   10ac8:	00112623          	sw	ra,12(sp)
   10acc:	00912223          	sw	s1,4(sp)
   10ad0:	40e78933          	sub	s2,a5,a4
   10ad4:	02e78263          	beq	a5,a4,10af8 <__libc_init_array+0x4c>
   10ad8:	40295913          	srai	s2,s2,0x2
   10adc:	00040413          	mv	s0,s0
   10ae0:	00000493          	li	s1,0
   10ae4:	00042783          	lw	a5,0(s0) # 23000 <__init_array_start>
   10ae8:	00148493          	addi	s1,s1,1
   10aec:	00440413          	addi	s0,s0,4
   10af0:	000780e7          	jalr	a5 # 23000 <__init_array_start>
   10af4:	ff24e8e3          	bltu	s1,s2,10ae4 <__libc_init_array+0x38>
   10af8:	000237b7          	lui	a5,0x23
   10afc:	00023437          	lui	s0,0x23
   10b00:	00878793          	addi	a5,a5,8 # 23008 <__do_global_dtors_aux_fini_array_entry>
   10b04:	00040713          	mv	a4,s0
   10b08:	40e78933          	sub	s2,a5,a4
   10b0c:	40295913          	srai	s2,s2,0x2
   10b10:	02e78063          	beq	a5,a4,10b30 <__libc_init_array+0x84>
   10b14:	00040413          	mv	s0,s0
   10b18:	00000493          	li	s1,0
   10b1c:	00042783          	lw	a5,0(s0) # 23000 <__init_array_start>
   10b20:	00148493          	addi	s1,s1,1
   10b24:	00440413          	addi	s0,s0,4
   10b28:	000780e7          	jalr	a5
   10b2c:	ff24e8e3          	bltu	s1,s2,10b1c <__libc_init_array+0x70>
   10b30:	00c12083          	lw	ra,12(sp)
   10b34:	00812403          	lw	s0,8(sp)
   10b38:	00412483          	lw	s1,4(sp)
   10b3c:	00012903          	lw	s2,0(sp)
   10b40:	01010113          	addi	sp,sp,16
   10b44:	00008067          	ret

00010b48 <gettimeofday>:
   10b48:	00050793          	mv	a5,a0
   10b4c:	f0c1a503          	lw	a0,-244(gp) # 2371c <_impure_ptr>
   10b50:	00058613          	mv	a2,a1
   10b54:	00078593          	mv	a1,a5
   10b58:	64d0406f          	j	159a4 <_gettimeofday_r>

00010b5c <memset>:
   10b5c:	00f00313          	li	t1,15
   10b60:	00050713          	mv	a4,a0
   10b64:	02c37e63          	bgeu	t1,a2,10ba0 <memset+0x44>
   10b68:	00f77793          	andi	a5,a4,15
   10b6c:	0a079063          	bnez	a5,10c0c <memset+0xb0>
   10b70:	08059263          	bnez	a1,10bf4 <memset+0x98>
   10b74:	ff067693          	andi	a3,a2,-16
   10b78:	00f67613          	andi	a2,a2,15
   10b7c:	00e686b3          	add	a3,a3,a4
   10b80:	00b72023          	sw	a1,0(a4)
   10b84:	00b72223          	sw	a1,4(a4)
   10b88:	00b72423          	sw	a1,8(a4)
   10b8c:	00b72623          	sw	a1,12(a4)
   10b90:	01070713          	addi	a4,a4,16
   10b94:	fed766e3          	bltu	a4,a3,10b80 <memset+0x24>
   10b98:	00061463          	bnez	a2,10ba0 <memset+0x44>
   10b9c:	00008067          	ret
   10ba0:	40c306b3          	sub	a3,t1,a2
   10ba4:	00269693          	slli	a3,a3,0x2
   10ba8:	00000297          	auipc	t0,0x0
   10bac:	005686b3          	add	a3,a3,t0
   10bb0:	00c68067          	jr	12(a3)
   10bb4:	00b70723          	sb	a1,14(a4)
   10bb8:	00b706a3          	sb	a1,13(a4)
   10bbc:	00b70623          	sb	a1,12(a4)
   10bc0:	00b705a3          	sb	a1,11(a4)
   10bc4:	00b70523          	sb	a1,10(a4)
   10bc8:	00b704a3          	sb	a1,9(a4)
   10bcc:	00b70423          	sb	a1,8(a4)
   10bd0:	00b703a3          	sb	a1,7(a4)
   10bd4:	00b70323          	sb	a1,6(a4)
   10bd8:	00b702a3          	sb	a1,5(a4)
   10bdc:	00b70223          	sb	a1,4(a4)
   10be0:	00b701a3          	sb	a1,3(a4)
   10be4:	00b70123          	sb	a1,2(a4)
   10be8:	00b700a3          	sb	a1,1(a4)
   10bec:	00b70023          	sb	a1,0(a4)
   10bf0:	00008067          	ret
   10bf4:	0ff5f593          	zext.b	a1,a1
   10bf8:	00859693          	slli	a3,a1,0x8
   10bfc:	00d5e5b3          	or	a1,a1,a3
   10c00:	01059693          	slli	a3,a1,0x10
   10c04:	00d5e5b3          	or	a1,a1,a3
   10c08:	f6dff06f          	j	10b74 <memset+0x18>
   10c0c:	00279693          	slli	a3,a5,0x2
   10c10:	00000297          	auipc	t0,0x0
   10c14:	005686b3          	add	a3,a3,t0
   10c18:	00008293          	mv	t0,ra
   10c1c:	fa0680e7          	jalr	-96(a3)
   10c20:	00028093          	mv	ra,t0
   10c24:	ff078793          	addi	a5,a5,-16
   10c28:	40f70733          	sub	a4,a4,a5
   10c2c:	00f60633          	add	a2,a2,a5
   10c30:	f6c378e3          	bgeu	t1,a2,10ba0 <memset+0x44>
   10c34:	f3dff06f          	j	10b70 <memset+0x14>

00010c38 <__call_exitprocs>:
   10c38:	fd010113          	addi	sp,sp,-48
   10c3c:	01412c23          	sw	s4,24(sp)
   10c40:	03212023          	sw	s2,32(sp)
   10c44:	f201a903          	lw	s2,-224(gp) # 23730 <__atexit>
   10c48:	02112623          	sw	ra,44(sp)
   10c4c:	06090c63          	beqz	s2,10cc4 <__call_exitprocs+0x8c>
   10c50:	01312e23          	sw	s3,28(sp)
   10c54:	01512a23          	sw	s5,20(sp)
   10c58:	01612823          	sw	s6,16(sp)
   10c5c:	01712623          	sw	s7,12(sp)
   10c60:	02812423          	sw	s0,40(sp)
   10c64:	02912223          	sw	s1,36(sp)
   10c68:	01812423          	sw	s8,8(sp)
   10c6c:	00050b13          	mv	s6,a0
   10c70:	00058b93          	mv	s7,a1
   10c74:	fff00993          	li	s3,-1
   10c78:	00100a93          	li	s5,1
   10c7c:	00492483          	lw	s1,4(s2)
   10c80:	fff48413          	addi	s0,s1,-1
   10c84:	02044263          	bltz	s0,10ca8 <__call_exitprocs+0x70>
   10c88:	00249493          	slli	s1,s1,0x2
   10c8c:	009904b3          	add	s1,s2,s1
   10c90:	040b8463          	beqz	s7,10cd8 <__call_exitprocs+0xa0>
   10c94:	1044a783          	lw	a5,260(s1)
   10c98:	05778063          	beq	a5,s7,10cd8 <__call_exitprocs+0xa0>
   10c9c:	fff40413          	addi	s0,s0,-1
   10ca0:	ffc48493          	addi	s1,s1,-4
   10ca4:	ff3418e3          	bne	s0,s3,10c94 <__call_exitprocs+0x5c>
   10ca8:	02812403          	lw	s0,40(sp)
   10cac:	02412483          	lw	s1,36(sp)
   10cb0:	01c12983          	lw	s3,28(sp)
   10cb4:	01412a83          	lw	s5,20(sp)
   10cb8:	01012b03          	lw	s6,16(sp)
   10cbc:	00c12b83          	lw	s7,12(sp)
   10cc0:	00812c03          	lw	s8,8(sp)
   10cc4:	02c12083          	lw	ra,44(sp)
   10cc8:	02012903          	lw	s2,32(sp)
   10ccc:	01812a03          	lw	s4,24(sp)
   10cd0:	03010113          	addi	sp,sp,48
   10cd4:	00008067          	ret
   10cd8:	00492783          	lw	a5,4(s2)
   10cdc:	0044a683          	lw	a3,4(s1)
   10ce0:	fff78793          	addi	a5,a5,-1
   10ce4:	06878a63          	beq	a5,s0,10d58 <__call_exitprocs+0x120>
   10ce8:	0004a223          	sw	zero,4(s1)
   10cec:	02068663          	beqz	a3,10d18 <__call_exitprocs+0xe0>
   10cf0:	18892783          	lw	a5,392(s2)
   10cf4:	008a9733          	sll	a4,s5,s0
   10cf8:	00492c03          	lw	s8,4(s2)
   10cfc:	00f777b3          	and	a5,a4,a5
   10d00:	02079463          	bnez	a5,10d28 <__call_exitprocs+0xf0>
   10d04:	000680e7          	jalr	a3
   10d08:	00492703          	lw	a4,4(s2)
   10d0c:	f201a783          	lw	a5,-224(gp) # 23730 <__atexit>
   10d10:	03871e63          	bne	a4,s8,10d4c <__call_exitprocs+0x114>
   10d14:	03279c63          	bne	a5,s2,10d4c <__call_exitprocs+0x114>
   10d18:	fff40413          	addi	s0,s0,-1
   10d1c:	ffc48493          	addi	s1,s1,-4
   10d20:	f73418e3          	bne	s0,s3,10c90 <__call_exitprocs+0x58>
   10d24:	f85ff06f          	j	10ca8 <__call_exitprocs+0x70>
   10d28:	18c92783          	lw	a5,396(s2)
   10d2c:	0844a583          	lw	a1,132(s1)
   10d30:	00f77733          	and	a4,a4,a5
   10d34:	02071663          	bnez	a4,10d60 <__call_exitprocs+0x128>
   10d38:	000b0513          	mv	a0,s6
   10d3c:	000680e7          	jalr	a3
   10d40:	00492703          	lw	a4,4(s2)
   10d44:	f201a783          	lw	a5,-224(gp) # 23730 <__atexit>
   10d48:	fd8706e3          	beq	a4,s8,10d14 <__call_exitprocs+0xdc>
   10d4c:	f4078ee3          	beqz	a5,10ca8 <__call_exitprocs+0x70>
   10d50:	00078913          	mv	s2,a5
   10d54:	f29ff06f          	j	10c7c <__call_exitprocs+0x44>
   10d58:	00892223          	sw	s0,4(s2)
   10d5c:	f91ff06f          	j	10cec <__call_exitprocs+0xb4>
   10d60:	00058513          	mv	a0,a1
   10d64:	000680e7          	jalr	a3
   10d68:	fa1ff06f          	j	10d08 <__call_exitprocs+0xd0>

00010d6c <atexit>:
   10d6c:	00050593          	mv	a1,a0
   10d70:	00000693          	li	a3,0
   10d74:	00000613          	li	a2,0
   10d78:	00000513          	li	a0,0
   10d7c:	1a40506f          	j	15f20 <__register_exitproc>

00010d80 <_malloc_trim_r>:
   10d80:	fe010113          	addi	sp,sp,-32
   10d84:	01312623          	sw	s3,12(sp)
   10d88:	000239b7          	lui	s3,0x23
   10d8c:	00812c23          	sw	s0,24(sp)
   10d90:	00912a23          	sw	s1,20(sp)
   10d94:	01212823          	sw	s2,16(sp)
   10d98:	01412423          	sw	s4,8(sp)
   10d9c:	00112e23          	sw	ra,28(sp)
   10da0:	00058a13          	mv	s4,a1
   10da4:	00050913          	mv	s2,a0
   10da8:	14098993          	addi	s3,s3,320 # 23140 <__malloc_av_>
   10dac:	405000ef          	jal	119b0 <__malloc_lock>
   10db0:	0089a783          	lw	a5,8(s3)
   10db4:	00001437          	lui	s0,0x1
   10db8:	fef40413          	addi	s0,s0,-17 # fef <exit-0xf0c5>
   10dbc:	0047a483          	lw	s1,4(a5)
   10dc0:	000017b7          	lui	a5,0x1
   10dc4:	ffc4f493          	andi	s1,s1,-4
   10dc8:	00848433          	add	s0,s1,s0
   10dcc:	41440433          	sub	s0,s0,s4
   10dd0:	00c45413          	srli	s0,s0,0xc
   10dd4:	fff40413          	addi	s0,s0,-1
   10dd8:	00c41413          	slli	s0,s0,0xc
   10ddc:	00f44e63          	blt	s0,a5,10df8 <_malloc_trim_r+0x78>
   10de0:	00000593          	li	a1,0
   10de4:	00090513          	mv	a0,s2
   10de8:	421040ef          	jal	15a08 <_sbrk_r>
   10dec:	0089a783          	lw	a5,8(s3)
   10df0:	009787b3          	add	a5,a5,s1
   10df4:	02f50863          	beq	a0,a5,10e24 <_malloc_trim_r+0xa4>
   10df8:	00090513          	mv	a0,s2
   10dfc:	3b9000ef          	jal	119b4 <__malloc_unlock>
   10e00:	01c12083          	lw	ra,28(sp)
   10e04:	01812403          	lw	s0,24(sp)
   10e08:	01412483          	lw	s1,20(sp)
   10e0c:	01012903          	lw	s2,16(sp)
   10e10:	00c12983          	lw	s3,12(sp)
   10e14:	00812a03          	lw	s4,8(sp)
   10e18:	00000513          	li	a0,0
   10e1c:	02010113          	addi	sp,sp,32
   10e20:	00008067          	ret
   10e24:	408005b3          	neg	a1,s0
   10e28:	00090513          	mv	a0,s2
   10e2c:	3dd040ef          	jal	15a08 <_sbrk_r>
   10e30:	fff00793          	li	a5,-1
   10e34:	04f50863          	beq	a0,a5,10e84 <_malloc_trim_r+0x104>
   10e38:	08c18793          	addi	a5,gp,140 # 2389c <__malloc_current_mallinfo>
   10e3c:	0089a683          	lw	a3,8(s3)
   10e40:	0007a703          	lw	a4,0(a5) # 1000 <exit-0xf0b4>
   10e44:	408484b3          	sub	s1,s1,s0
   10e48:	0014e493          	ori	s1,s1,1
   10e4c:	00090513          	mv	a0,s2
   10e50:	40870733          	sub	a4,a4,s0
   10e54:	0096a223          	sw	s1,4(a3)
   10e58:	00e7a023          	sw	a4,0(a5)
   10e5c:	359000ef          	jal	119b4 <__malloc_unlock>
   10e60:	01c12083          	lw	ra,28(sp)
   10e64:	01812403          	lw	s0,24(sp)
   10e68:	01412483          	lw	s1,20(sp)
   10e6c:	01012903          	lw	s2,16(sp)
   10e70:	00c12983          	lw	s3,12(sp)
   10e74:	00812a03          	lw	s4,8(sp)
   10e78:	00100513          	li	a0,1
   10e7c:	02010113          	addi	sp,sp,32
   10e80:	00008067          	ret
   10e84:	00000593          	li	a1,0
   10e88:	00090513          	mv	a0,s2
   10e8c:	37d040ef          	jal	15a08 <_sbrk_r>
   10e90:	0089a703          	lw	a4,8(s3)
   10e94:	00f00693          	li	a3,15
   10e98:	40e507b3          	sub	a5,a0,a4
   10e9c:	f4f6dee3          	bge	a3,a5,10df8 <_malloc_trim_r+0x78>
   10ea0:	f101a603          	lw	a2,-240(gp) # 23720 <__malloc_sbrk_base>
   10ea4:	0017e793          	ori	a5,a5,1
   10ea8:	40c50533          	sub	a0,a0,a2
   10eac:	00f72223          	sw	a5,4(a4)
   10eb0:	08a1a623          	sw	a0,140(gp) # 2389c <__malloc_current_mallinfo>
   10eb4:	f45ff06f          	j	10df8 <_malloc_trim_r+0x78>

00010eb8 <_free_r>:
   10eb8:	12058663          	beqz	a1,10fe4 <_free_r+0x12c>
   10ebc:	ff010113          	addi	sp,sp,-16
   10ec0:	00812423          	sw	s0,8(sp)
   10ec4:	00912223          	sw	s1,4(sp)
   10ec8:	00058413          	mv	s0,a1
   10ecc:	00050493          	mv	s1,a0
   10ed0:	00112623          	sw	ra,12(sp)
   10ed4:	2dd000ef          	jal	119b0 <__malloc_lock>
   10ed8:	ffc42503          	lw	a0,-4(s0)
   10edc:	ff840713          	addi	a4,s0,-8
   10ee0:	000235b7          	lui	a1,0x23
   10ee4:	ffe57793          	andi	a5,a0,-2
   10ee8:	00f70633          	add	a2,a4,a5
   10eec:	14058593          	addi	a1,a1,320 # 23140 <__malloc_av_>
   10ef0:	00462683          	lw	a3,4(a2)
   10ef4:	0085a803          	lw	a6,8(a1)
   10ef8:	00157893          	andi	a7,a0,1
   10efc:	ffc6f693          	andi	a3,a3,-4
   10f00:	18c80c63          	beq	a6,a2,11098 <_free_r+0x1e0>
   10f04:	00d62223          	sw	a3,4(a2)
   10f08:	00d60833          	add	a6,a2,a3
   10f0c:	00482803          	lw	a6,4(a6)
   10f10:	00187813          	andi	a6,a6,1
   10f14:	08089c63          	bnez	a7,10fac <_free_r+0xf4>
   10f18:	ff842303          	lw	t1,-8(s0)
   10f1c:	00023537          	lui	a0,0x23
   10f20:	14850513          	addi	a0,a0,328 # 23148 <__malloc_av_+0x8>
   10f24:	40670733          	sub	a4,a4,t1
   10f28:	00872883          	lw	a7,8(a4)
   10f2c:	006787b3          	add	a5,a5,t1
   10f30:	12a88e63          	beq	a7,a0,1106c <_free_r+0x1b4>
   10f34:	00c72303          	lw	t1,12(a4)
   10f38:	0068a623          	sw	t1,12(a7)
   10f3c:	01132423          	sw	a7,8(t1)
   10f40:	1a080063          	beqz	a6,110e0 <_free_r+0x228>
   10f44:	0017e693          	ori	a3,a5,1
   10f48:	00d72223          	sw	a3,4(a4)
   10f4c:	00f62023          	sw	a5,0(a2)
   10f50:	1ff00693          	li	a3,511
   10f54:	0af6e463          	bltu	a3,a5,10ffc <_free_r+0x144>
   10f58:	ff87f693          	andi	a3,a5,-8
   10f5c:	00868693          	addi	a3,a3,8
   10f60:	0045a503          	lw	a0,4(a1)
   10f64:	00d586b3          	add	a3,a1,a3
   10f68:	0006a603          	lw	a2,0(a3)
   10f6c:	0057d813          	srli	a6,a5,0x5
   10f70:	00100793          	li	a5,1
   10f74:	010797b3          	sll	a5,a5,a6
   10f78:	00a7e7b3          	or	a5,a5,a0
   10f7c:	ff868513          	addi	a0,a3,-8
   10f80:	00c72423          	sw	a2,8(a4)
   10f84:	00a72623          	sw	a0,12(a4)
   10f88:	00f5a223          	sw	a5,4(a1)
   10f8c:	00e6a023          	sw	a4,0(a3)
   10f90:	00e62623          	sw	a4,12(a2)
   10f94:	00812403          	lw	s0,8(sp)
   10f98:	00c12083          	lw	ra,12(sp)
   10f9c:	00048513          	mv	a0,s1
   10fa0:	00412483          	lw	s1,4(sp)
   10fa4:	01010113          	addi	sp,sp,16
   10fa8:	20d0006f          	j	119b4 <__malloc_unlock>
   10fac:	02081e63          	bnez	a6,10fe8 <_free_r+0x130>
   10fb0:	00023537          	lui	a0,0x23
   10fb4:	00d787b3          	add	a5,a5,a3
   10fb8:	14850513          	addi	a0,a0,328 # 23148 <__malloc_av_+0x8>
   10fbc:	00862683          	lw	a3,8(a2)
   10fc0:	0017e893          	ori	a7,a5,1
   10fc4:	00f70833          	add	a6,a4,a5
   10fc8:	16a68263          	beq	a3,a0,1112c <_free_r+0x274>
   10fcc:	00c62603          	lw	a2,12(a2)
   10fd0:	00c6a623          	sw	a2,12(a3)
   10fd4:	00d62423          	sw	a3,8(a2)
   10fd8:	01172223          	sw	a7,4(a4)
   10fdc:	00f82023          	sw	a5,0(a6)
   10fe0:	f71ff06f          	j	10f50 <_free_r+0x98>
   10fe4:	00008067          	ret
   10fe8:	00156513          	ori	a0,a0,1
   10fec:	fea42e23          	sw	a0,-4(s0)
   10ff0:	00f62023          	sw	a5,0(a2)
   10ff4:	1ff00693          	li	a3,511
   10ff8:	f6f6f0e3          	bgeu	a3,a5,10f58 <_free_r+0xa0>
   10ffc:	0097d693          	srli	a3,a5,0x9
   11000:	00400613          	li	a2,4
   11004:	0ed66263          	bltu	a2,a3,110e8 <_free_r+0x230>
   11008:	0067d693          	srli	a3,a5,0x6
   1100c:	03968513          	addi	a0,a3,57
   11010:	00351513          	slli	a0,a0,0x3
   11014:	03868613          	addi	a2,a3,56
   11018:	00a58533          	add	a0,a1,a0
   1101c:	00052683          	lw	a3,0(a0)
   11020:	ff850513          	addi	a0,a0,-8
   11024:	00d51863          	bne	a0,a3,11034 <_free_r+0x17c>
   11028:	1200006f          	j	11148 <_free_r+0x290>
   1102c:	0086a683          	lw	a3,8(a3)
   11030:	00d50863          	beq	a0,a3,11040 <_free_r+0x188>
   11034:	0046a603          	lw	a2,4(a3)
   11038:	ffc67613          	andi	a2,a2,-4
   1103c:	fec7e8e3          	bltu	a5,a2,1102c <_free_r+0x174>
   11040:	00c6a503          	lw	a0,12(a3)
   11044:	00a72623          	sw	a0,12(a4)
   11048:	00d72423          	sw	a3,8(a4)
   1104c:	00812403          	lw	s0,8(sp)
   11050:	00e52423          	sw	a4,8(a0)
   11054:	00c12083          	lw	ra,12(sp)
   11058:	00048513          	mv	a0,s1
   1105c:	00412483          	lw	s1,4(sp)
   11060:	00e6a623          	sw	a4,12(a3)
   11064:	01010113          	addi	sp,sp,16
   11068:	14d0006f          	j	119b4 <__malloc_unlock>
   1106c:	0a081063          	bnez	a6,1110c <_free_r+0x254>
   11070:	00c62583          	lw	a1,12(a2)
   11074:	00862603          	lw	a2,8(a2)
   11078:	00f686b3          	add	a3,a3,a5
   1107c:	0016e793          	ori	a5,a3,1
   11080:	00b62623          	sw	a1,12(a2)
   11084:	00c5a423          	sw	a2,8(a1)
   11088:	00f72223          	sw	a5,4(a4)
   1108c:	00d70733          	add	a4,a4,a3
   11090:	00d72023          	sw	a3,0(a4)
   11094:	f01ff06f          	j	10f94 <_free_r+0xdc>
   11098:	00d786b3          	add	a3,a5,a3
   1109c:	02089063          	bnez	a7,110bc <_free_r+0x204>
   110a0:	ff842503          	lw	a0,-8(s0)
   110a4:	40a70733          	sub	a4,a4,a0
   110a8:	00c72783          	lw	a5,12(a4)
   110ac:	00872603          	lw	a2,8(a4)
   110b0:	00a686b3          	add	a3,a3,a0
   110b4:	00f62623          	sw	a5,12(a2)
   110b8:	00c7a423          	sw	a2,8(a5)
   110bc:	0016e613          	ori	a2,a3,1
   110c0:	f141a783          	lw	a5,-236(gp) # 23724 <__malloc_trim_threshold>
   110c4:	00c72223          	sw	a2,4(a4)
   110c8:	00e5a423          	sw	a4,8(a1)
   110cc:	ecf6e4e3          	bltu	a3,a5,10f94 <_free_r+0xdc>
   110d0:	f2c1a583          	lw	a1,-212(gp) # 2373c <__malloc_top_pad>
   110d4:	00048513          	mv	a0,s1
   110d8:	ca9ff0ef          	jal	10d80 <_malloc_trim_r>
   110dc:	eb9ff06f          	j	10f94 <_free_r+0xdc>
   110e0:	00d787b3          	add	a5,a5,a3
   110e4:	ed9ff06f          	j	10fbc <_free_r+0x104>
   110e8:	01400613          	li	a2,20
   110ec:	02d67863          	bgeu	a2,a3,1111c <_free_r+0x264>
   110f0:	05400613          	li	a2,84
   110f4:	06d66863          	bltu	a2,a3,11164 <_free_r+0x2ac>
   110f8:	00c7d693          	srli	a3,a5,0xc
   110fc:	06f68513          	addi	a0,a3,111
   11100:	00351513          	slli	a0,a0,0x3
   11104:	06e68613          	addi	a2,a3,110
   11108:	f11ff06f          	j	11018 <_free_r+0x160>
   1110c:	0017e693          	ori	a3,a5,1
   11110:	00d72223          	sw	a3,4(a4)
   11114:	00f62023          	sw	a5,0(a2)
   11118:	e7dff06f          	j	10f94 <_free_r+0xdc>
   1111c:	05c68513          	addi	a0,a3,92
   11120:	00351513          	slli	a0,a0,0x3
   11124:	05b68613          	addi	a2,a3,91
   11128:	ef1ff06f          	j	11018 <_free_r+0x160>
   1112c:	00e5aa23          	sw	a4,20(a1)
   11130:	00e5a823          	sw	a4,16(a1)
   11134:	00a72623          	sw	a0,12(a4)
   11138:	00a72423          	sw	a0,8(a4)
   1113c:	01172223          	sw	a7,4(a4)
   11140:	00f82023          	sw	a5,0(a6)
   11144:	e51ff06f          	j	10f94 <_free_r+0xdc>
   11148:	0045a803          	lw	a6,4(a1)
   1114c:	40265613          	srai	a2,a2,0x2
   11150:	00100793          	li	a5,1
   11154:	00c797b3          	sll	a5,a5,a2
   11158:	0107e7b3          	or	a5,a5,a6
   1115c:	00f5a223          	sw	a5,4(a1)
   11160:	ee5ff06f          	j	11044 <_free_r+0x18c>
   11164:	15400613          	li	a2,340
   11168:	00d66c63          	bltu	a2,a3,11180 <_free_r+0x2c8>
   1116c:	00f7d693          	srli	a3,a5,0xf
   11170:	07868513          	addi	a0,a3,120
   11174:	00351513          	slli	a0,a0,0x3
   11178:	07768613          	addi	a2,a3,119
   1117c:	e9dff06f          	j	11018 <_free_r+0x160>
   11180:	55400613          	li	a2,1364
   11184:	00d66c63          	bltu	a2,a3,1119c <_free_r+0x2e4>
   11188:	0127d693          	srli	a3,a5,0x12
   1118c:	07d68513          	addi	a0,a3,125
   11190:	00351513          	slli	a0,a0,0x3
   11194:	07c68613          	addi	a2,a3,124
   11198:	e81ff06f          	j	11018 <_free_r+0x160>
   1119c:	3f800513          	li	a0,1016
   111a0:	07e00613          	li	a2,126
   111a4:	e75ff06f          	j	11018 <_free_r+0x160>

000111a8 <_malloc_r>:
   111a8:	fd010113          	addi	sp,sp,-48
   111ac:	01312e23          	sw	s3,28(sp)
   111b0:	02112623          	sw	ra,44(sp)
   111b4:	02812423          	sw	s0,40(sp)
   111b8:	02912223          	sw	s1,36(sp)
   111bc:	03212023          	sw	s2,32(sp)
   111c0:	00b58793          	addi	a5,a1,11
   111c4:	01600713          	li	a4,22
   111c8:	00050993          	mv	s3,a0
   111cc:	08f76063          	bltu	a4,a5,1124c <_malloc_r+0xa4>
   111d0:	01000493          	li	s1,16
   111d4:	20b4e463          	bltu	s1,a1,113dc <_malloc_r+0x234>
   111d8:	7d8000ef          	jal	119b0 <__malloc_lock>
   111dc:	01800793          	li	a5,24
   111e0:	00200593          	li	a1,2
   111e4:	00023937          	lui	s2,0x23
   111e8:	14090913          	addi	s2,s2,320 # 23140 <__malloc_av_>
   111ec:	00f907b3          	add	a5,s2,a5
   111f0:	0047a403          	lw	s0,4(a5)
   111f4:	ff878713          	addi	a4,a5,-8
   111f8:	44e40663          	beq	s0,a4,11644 <_malloc_r+0x49c>
   111fc:	00442783          	lw	a5,4(s0)
   11200:	00c42683          	lw	a3,12(s0)
   11204:	00842603          	lw	a2,8(s0)
   11208:	ffc7f793          	andi	a5,a5,-4
   1120c:	00f407b3          	add	a5,s0,a5
   11210:	0047a703          	lw	a4,4(a5)
   11214:	00d62623          	sw	a3,12(a2)
   11218:	00c6a423          	sw	a2,8(a3)
   1121c:	00176713          	ori	a4,a4,1
   11220:	00098513          	mv	a0,s3
   11224:	00e7a223          	sw	a4,4(a5)
   11228:	78c000ef          	jal	119b4 <__malloc_unlock>
   1122c:	02c12083          	lw	ra,44(sp)
   11230:	00840513          	addi	a0,s0,8
   11234:	02812403          	lw	s0,40(sp)
   11238:	02412483          	lw	s1,36(sp)
   1123c:	02012903          	lw	s2,32(sp)
   11240:	01c12983          	lw	s3,28(sp)
   11244:	03010113          	addi	sp,sp,48
   11248:	00008067          	ret
   1124c:	ff87f493          	andi	s1,a5,-8
   11250:	1807c663          	bltz	a5,113dc <_malloc_r+0x234>
   11254:	18b4e463          	bltu	s1,a1,113dc <_malloc_r+0x234>
   11258:	758000ef          	jal	119b0 <__malloc_lock>
   1125c:	1f700793          	li	a5,503
   11260:	4e97fc63          	bgeu	a5,s1,11758 <_malloc_r+0x5b0>
   11264:	0094d793          	srli	a5,s1,0x9
   11268:	18078e63          	beqz	a5,11404 <_malloc_r+0x25c>
   1126c:	00400713          	li	a4,4
   11270:	44f76263          	bltu	a4,a5,116b4 <_malloc_r+0x50c>
   11274:	0064d793          	srli	a5,s1,0x6
   11278:	03978593          	addi	a1,a5,57
   1127c:	03878813          	addi	a6,a5,56
   11280:	00359613          	slli	a2,a1,0x3
   11284:	00023937          	lui	s2,0x23
   11288:	14090913          	addi	s2,s2,320 # 23140 <__malloc_av_>
   1128c:	00c90633          	add	a2,s2,a2
   11290:	00462403          	lw	s0,4(a2)
   11294:	ff860613          	addi	a2,a2,-8
   11298:	02860863          	beq	a2,s0,112c8 <_malloc_r+0x120>
   1129c:	00f00513          	li	a0,15
   112a0:	0140006f          	j	112b4 <_malloc_r+0x10c>
   112a4:	00c42683          	lw	a3,12(s0)
   112a8:	34075c63          	bgez	a4,11600 <_malloc_r+0x458>
   112ac:	00d60e63          	beq	a2,a3,112c8 <_malloc_r+0x120>
   112b0:	00068413          	mv	s0,a3
   112b4:	00442783          	lw	a5,4(s0)
   112b8:	ffc7f793          	andi	a5,a5,-4
   112bc:	40978733          	sub	a4,a5,s1
   112c0:	fee552e3          	bge	a0,a4,112a4 <_malloc_r+0xfc>
   112c4:	00080593          	mv	a1,a6
   112c8:	01092403          	lw	s0,16(s2)
   112cc:	00023837          	lui	a6,0x23
   112d0:	14880813          	addi	a6,a6,328 # 23148 <__malloc_av_+0x8>
   112d4:	2b040663          	beq	s0,a6,11580 <_malloc_r+0x3d8>
   112d8:	00442783          	lw	a5,4(s0)
   112dc:	00f00693          	li	a3,15
   112e0:	ffc7f793          	andi	a5,a5,-4
   112e4:	40978733          	sub	a4,a5,s1
   112e8:	46e6ce63          	blt	a3,a4,11764 <_malloc_r+0x5bc>
   112ec:	01092a23          	sw	a6,20(s2)
   112f0:	01092823          	sw	a6,16(s2)
   112f4:	44075263          	bgez	a4,11738 <_malloc_r+0x590>
   112f8:	1ff00713          	li	a4,511
   112fc:	00492503          	lw	a0,4(s2)
   11300:	34f76a63          	bltu	a4,a5,11654 <_malloc_r+0x4ac>
   11304:	ff87f713          	andi	a4,a5,-8
   11308:	00870713          	addi	a4,a4,8
   1130c:	00e90733          	add	a4,s2,a4
   11310:	00072683          	lw	a3,0(a4)
   11314:	0057d613          	srli	a2,a5,0x5
   11318:	00100793          	li	a5,1
   1131c:	00c797b3          	sll	a5,a5,a2
   11320:	00f56533          	or	a0,a0,a5
   11324:	ff870793          	addi	a5,a4,-8
   11328:	00d42423          	sw	a3,8(s0)
   1132c:	00f42623          	sw	a5,12(s0)
   11330:	00a92223          	sw	a0,4(s2)
   11334:	00872023          	sw	s0,0(a4)
   11338:	0086a623          	sw	s0,12(a3)
   1133c:	4025d793          	srai	a5,a1,0x2
   11340:	00100613          	li	a2,1
   11344:	00f61633          	sll	a2,a2,a5
   11348:	0cc56663          	bltu	a0,a2,11414 <_malloc_r+0x26c>
   1134c:	00a677b3          	and	a5,a2,a0
   11350:	02079463          	bnez	a5,11378 <_malloc_r+0x1d0>
   11354:	00161613          	slli	a2,a2,0x1
   11358:	ffc5f593          	andi	a1,a1,-4
   1135c:	00a677b3          	and	a5,a2,a0
   11360:	00458593          	addi	a1,a1,4
   11364:	00079a63          	bnez	a5,11378 <_malloc_r+0x1d0>
   11368:	00161613          	slli	a2,a2,0x1
   1136c:	00a677b3          	and	a5,a2,a0
   11370:	00458593          	addi	a1,a1,4
   11374:	fe078ae3          	beqz	a5,11368 <_malloc_r+0x1c0>
   11378:	00f00893          	li	a7,15
   1137c:	00359313          	slli	t1,a1,0x3
   11380:	00690333          	add	t1,s2,t1
   11384:	00030513          	mv	a0,t1
   11388:	00c52783          	lw	a5,12(a0)
   1138c:	00058e13          	mv	t3,a1
   11390:	34f50463          	beq	a0,a5,116d8 <_malloc_r+0x530>
   11394:	0047a703          	lw	a4,4(a5)
   11398:	00078413          	mv	s0,a5
   1139c:	00c7a783          	lw	a5,12(a5)
   113a0:	ffc77713          	andi	a4,a4,-4
   113a4:	409706b3          	sub	a3,a4,s1
   113a8:	34d8c463          	blt	a7,a3,116f0 <_malloc_r+0x548>
   113ac:	fe06c2e3          	bltz	a3,11390 <_malloc_r+0x1e8>
   113b0:	00e40733          	add	a4,s0,a4
   113b4:	00472683          	lw	a3,4(a4)
   113b8:	00842603          	lw	a2,8(s0)
   113bc:	00098513          	mv	a0,s3
   113c0:	0016e693          	ori	a3,a3,1
   113c4:	00d72223          	sw	a3,4(a4)
   113c8:	00f62623          	sw	a5,12(a2)
   113cc:	00c7a423          	sw	a2,8(a5)
   113d0:	5e4000ef          	jal	119b4 <__malloc_unlock>
   113d4:	00840513          	addi	a0,s0,8
   113d8:	0100006f          	j	113e8 <_malloc_r+0x240>
   113dc:	00c00793          	li	a5,12
   113e0:	00f9a023          	sw	a5,0(s3)
   113e4:	00000513          	li	a0,0
   113e8:	02c12083          	lw	ra,44(sp)
   113ec:	02812403          	lw	s0,40(sp)
   113f0:	02412483          	lw	s1,36(sp)
   113f4:	02012903          	lw	s2,32(sp)
   113f8:	01c12983          	lw	s3,28(sp)
   113fc:	03010113          	addi	sp,sp,48
   11400:	00008067          	ret
   11404:	20000613          	li	a2,512
   11408:	04000593          	li	a1,64
   1140c:	03f00813          	li	a6,63
   11410:	e75ff06f          	j	11284 <_malloc_r+0xdc>
   11414:	00892403          	lw	s0,8(s2)
   11418:	01612823          	sw	s6,16(sp)
   1141c:	00442783          	lw	a5,4(s0)
   11420:	ffc7fb13          	andi	s6,a5,-4
   11424:	009b6863          	bltu	s6,s1,11434 <_malloc_r+0x28c>
   11428:	409b0733          	sub	a4,s6,s1
   1142c:	00f00793          	li	a5,15
   11430:	18e7c663          	blt	a5,a4,115bc <_malloc_r+0x414>
   11434:	01912223          	sw	s9,4(sp)
   11438:	01512a23          	sw	s5,20(sp)
   1143c:	f101a703          	lw	a4,-240(gp) # 23720 <__malloc_sbrk_base>
   11440:	f2c1aa83          	lw	s5,-212(gp) # 2373c <__malloc_top_pad>
   11444:	01412c23          	sw	s4,24(sp)
   11448:	01712623          	sw	s7,12(sp)
   1144c:	fff00793          	li	a5,-1
   11450:	01548ab3          	add	s5,s1,s5
   11454:	01640a33          	add	s4,s0,s6
   11458:	3cf70c63          	beq	a4,a5,11830 <_malloc_r+0x688>
   1145c:	000017b7          	lui	a5,0x1
   11460:	00f78793          	addi	a5,a5,15 # 100f <exit-0xf0a5>
   11464:	00fa8ab3          	add	s5,s5,a5
   11468:	fffff7b7          	lui	a5,0xfffff
   1146c:	00fafab3          	and	s5,s5,a5
   11470:	000a8593          	mv	a1,s5
   11474:	00098513          	mv	a0,s3
   11478:	590040ef          	jal	15a08 <_sbrk_r>
   1147c:	fff00793          	li	a5,-1
   11480:	00050b93          	mv	s7,a0
   11484:	46f50863          	beq	a0,a5,118f4 <_malloc_r+0x74c>
   11488:	01812423          	sw	s8,8(sp)
   1148c:	0f456e63          	bltu	a0,s4,11588 <_malloc_r+0x3e0>
   11490:	08c18c13          	addi	s8,gp,140 # 2389c <__malloc_current_mallinfo>
   11494:	000c2583          	lw	a1,0(s8)
   11498:	00ba85b3          	add	a1,s5,a1
   1149c:	00bc2023          	sw	a1,0(s8)
   114a0:	00058713          	mv	a4,a1
   114a4:	44aa0e63          	beq	s4,a0,11900 <_malloc_r+0x758>
   114a8:	f101a683          	lw	a3,-240(gp) # 23720 <__malloc_sbrk_base>
   114ac:	fff00793          	li	a5,-1
   114b0:	46f68663          	beq	a3,a5,1191c <_malloc_r+0x774>
   114b4:	414b87b3          	sub	a5,s7,s4
   114b8:	00e787b3          	add	a5,a5,a4
   114bc:	00fc2023          	sw	a5,0(s8)
   114c0:	007bfc93          	andi	s9,s7,7
   114c4:	380c8663          	beqz	s9,11850 <_malloc_r+0x6a8>
   114c8:	419b8bb3          	sub	s7,s7,s9
   114cc:	000015b7          	lui	a1,0x1
   114d0:	008b8b93          	addi	s7,s7,8
   114d4:	00858593          	addi	a1,a1,8 # 1008 <exit-0xf0ac>
   114d8:	015b8ab3          	add	s5,s7,s5
   114dc:	419585b3          	sub	a1,a1,s9
   114e0:	415585b3          	sub	a1,a1,s5
   114e4:	01459593          	slli	a1,a1,0x14
   114e8:	0145da13          	srli	s4,a1,0x14
   114ec:	000a0593          	mv	a1,s4
   114f0:	00098513          	mv	a0,s3
   114f4:	514040ef          	jal	15a08 <_sbrk_r>
   114f8:	fff00793          	li	a5,-1
   114fc:	46f50063          	beq	a0,a5,1195c <_malloc_r+0x7b4>
   11500:	41750533          	sub	a0,a0,s7
   11504:	01450ab3          	add	s5,a0,s4
   11508:	000c2703          	lw	a4,0(s8)
   1150c:	01792423          	sw	s7,8(s2)
   11510:	001ae793          	ori	a5,s5,1
   11514:	00ea05b3          	add	a1,s4,a4
   11518:	00fba223          	sw	a5,4(s7)
   1151c:	00bc2023          	sw	a1,0(s8)
   11520:	03240e63          	beq	s0,s2,1155c <_malloc_r+0x3b4>
   11524:	00f00693          	li	a3,15
   11528:	3566fa63          	bgeu	a3,s6,1187c <_malloc_r+0x6d4>
   1152c:	00442703          	lw	a4,4(s0)
   11530:	ff4b0793          	addi	a5,s6,-12
   11534:	ff87f793          	andi	a5,a5,-8
   11538:	00177713          	andi	a4,a4,1
   1153c:	00f76733          	or	a4,a4,a5
   11540:	00e42223          	sw	a4,4(s0)
   11544:	00500613          	li	a2,5
   11548:	00f40733          	add	a4,s0,a5
   1154c:	00c72223          	sw	a2,4(a4)
   11550:	00c72423          	sw	a2,8(a4)
   11554:	2cf6e263          	bltu	a3,a5,11818 <_malloc_r+0x670>
   11558:	004ba783          	lw	a5,4(s7)
   1155c:	f281a683          	lw	a3,-216(gp) # 23738 <__malloc_max_sbrked_mem>
   11560:	00b6f463          	bgeu	a3,a1,11568 <_malloc_r+0x3c0>
   11564:	f2b1a423          	sw	a1,-216(gp) # 23738 <__malloc_max_sbrked_mem>
   11568:	f241a683          	lw	a3,-220(gp) # 23734 <__malloc_max_total_mem>
   1156c:	00b6f463          	bgeu	a3,a1,11574 <_malloc_r+0x3cc>
   11570:	f2b1a223          	sw	a1,-220(gp) # 23734 <__malloc_max_total_mem>
   11574:	00812c03          	lw	s8,8(sp)
   11578:	000b8413          	mv	s0,s7
   1157c:	01c0006f          	j	11598 <_malloc_r+0x3f0>
   11580:	00492503          	lw	a0,4(s2)
   11584:	db9ff06f          	j	1133c <_malloc_r+0x194>
   11588:	35240c63          	beq	s0,s2,118e0 <_malloc_r+0x738>
   1158c:	00892403          	lw	s0,8(s2)
   11590:	00812c03          	lw	s8,8(sp)
   11594:	00442783          	lw	a5,4(s0)
   11598:	ffc7f793          	andi	a5,a5,-4
   1159c:	40978733          	sub	a4,a5,s1
   115a0:	2e97e463          	bltu	a5,s1,11888 <_malloc_r+0x6e0>
   115a4:	00f00793          	li	a5,15
   115a8:	2ee7d063          	bge	a5,a4,11888 <_malloc_r+0x6e0>
   115ac:	01812a03          	lw	s4,24(sp)
   115b0:	01412a83          	lw	s5,20(sp)
   115b4:	00c12b83          	lw	s7,12(sp)
   115b8:	00412c83          	lw	s9,4(sp)
   115bc:	0014e793          	ori	a5,s1,1
   115c0:	00f42223          	sw	a5,4(s0)
   115c4:	009404b3          	add	s1,s0,s1
   115c8:	00992423          	sw	s1,8(s2)
   115cc:	00176713          	ori	a4,a4,1
   115d0:	00098513          	mv	a0,s3
   115d4:	00e4a223          	sw	a4,4(s1)
   115d8:	3dc000ef          	jal	119b4 <__malloc_unlock>
   115dc:	02c12083          	lw	ra,44(sp)
   115e0:	00840513          	addi	a0,s0,8
   115e4:	02812403          	lw	s0,40(sp)
   115e8:	01012b03          	lw	s6,16(sp)
   115ec:	02412483          	lw	s1,36(sp)
   115f0:	02012903          	lw	s2,32(sp)
   115f4:	01c12983          	lw	s3,28(sp)
   115f8:	03010113          	addi	sp,sp,48
   115fc:	00008067          	ret
   11600:	00842603          	lw	a2,8(s0)
   11604:	00f407b3          	add	a5,s0,a5
   11608:	0047a703          	lw	a4,4(a5) # fffff004 <__BSS_END__+0xfffdb5b0>
   1160c:	00d62623          	sw	a3,12(a2)
   11610:	00c6a423          	sw	a2,8(a3)
   11614:	00176713          	ori	a4,a4,1
   11618:	00098513          	mv	a0,s3
   1161c:	00e7a223          	sw	a4,4(a5)
   11620:	394000ef          	jal	119b4 <__malloc_unlock>
   11624:	02c12083          	lw	ra,44(sp)
   11628:	00840513          	addi	a0,s0,8
   1162c:	02812403          	lw	s0,40(sp)
   11630:	02412483          	lw	s1,36(sp)
   11634:	02012903          	lw	s2,32(sp)
   11638:	01c12983          	lw	s3,28(sp)
   1163c:	03010113          	addi	sp,sp,48
   11640:	00008067          	ret
   11644:	00c7a403          	lw	s0,12(a5)
   11648:	00258593          	addi	a1,a1,2
   1164c:	c6878ee3          	beq	a5,s0,112c8 <_malloc_r+0x120>
   11650:	badff06f          	j	111fc <_malloc_r+0x54>
   11654:	0097d713          	srli	a4,a5,0x9
   11658:	00400693          	li	a3,4
   1165c:	14e6f263          	bgeu	a3,a4,117a0 <_malloc_r+0x5f8>
   11660:	01400693          	li	a3,20
   11664:	24e6e263          	bltu	a3,a4,118a8 <_malloc_r+0x700>
   11668:	05c70613          	addi	a2,a4,92
   1166c:	00361613          	slli	a2,a2,0x3
   11670:	05b70693          	addi	a3,a4,91
   11674:	00c90633          	add	a2,s2,a2
   11678:	00062703          	lw	a4,0(a2)
   1167c:	ff860613          	addi	a2,a2,-8
   11680:	00e61863          	bne	a2,a4,11690 <_malloc_r+0x4e8>
   11684:	1b40006f          	j	11838 <_malloc_r+0x690>
   11688:	00872703          	lw	a4,8(a4)
   1168c:	00e60863          	beq	a2,a4,1169c <_malloc_r+0x4f4>
   11690:	00472683          	lw	a3,4(a4)
   11694:	ffc6f693          	andi	a3,a3,-4
   11698:	fed7e8e3          	bltu	a5,a3,11688 <_malloc_r+0x4e0>
   1169c:	00c72603          	lw	a2,12(a4)
   116a0:	00c42623          	sw	a2,12(s0)
   116a4:	00e42423          	sw	a4,8(s0)
   116a8:	00862423          	sw	s0,8(a2)
   116ac:	00872623          	sw	s0,12(a4)
   116b0:	c8dff06f          	j	1133c <_malloc_r+0x194>
   116b4:	01400713          	li	a4,20
   116b8:	0ef77e63          	bgeu	a4,a5,117b4 <_malloc_r+0x60c>
   116bc:	05400713          	li	a4,84
   116c0:	20f76263          	bltu	a4,a5,118c4 <_malloc_r+0x71c>
   116c4:	00c4d793          	srli	a5,s1,0xc
   116c8:	06f78593          	addi	a1,a5,111
   116cc:	06e78813          	addi	a6,a5,110
   116d0:	00359613          	slli	a2,a1,0x3
   116d4:	bb1ff06f          	j	11284 <_malloc_r+0xdc>
   116d8:	001e0e13          	addi	t3,t3,1
   116dc:	003e7793          	andi	a5,t3,3
   116e0:	00850513          	addi	a0,a0,8
   116e4:	0e078663          	beqz	a5,117d0 <_malloc_r+0x628>
   116e8:	00c52783          	lw	a5,12(a0)
   116ec:	ca5ff06f          	j	11390 <_malloc_r+0x1e8>
   116f0:	00842603          	lw	a2,8(s0)
   116f4:	0014e593          	ori	a1,s1,1
   116f8:	00b42223          	sw	a1,4(s0)
   116fc:	00f62623          	sw	a5,12(a2)
   11700:	00c7a423          	sw	a2,8(a5)
   11704:	009404b3          	add	s1,s0,s1
   11708:	00992a23          	sw	s1,20(s2)
   1170c:	00992823          	sw	s1,16(s2)
   11710:	0016e793          	ori	a5,a3,1
   11714:	00e40733          	add	a4,s0,a4
   11718:	0104a623          	sw	a6,12(s1)
   1171c:	0104a423          	sw	a6,8(s1)
   11720:	00f4a223          	sw	a5,4(s1)
   11724:	00098513          	mv	a0,s3
   11728:	00d72023          	sw	a3,0(a4)
   1172c:	288000ef          	jal	119b4 <__malloc_unlock>
   11730:	00840513          	addi	a0,s0,8
   11734:	cb5ff06f          	j	113e8 <_malloc_r+0x240>
   11738:	00f407b3          	add	a5,s0,a5
   1173c:	0047a703          	lw	a4,4(a5)
   11740:	00098513          	mv	a0,s3
   11744:	00176713          	ori	a4,a4,1
   11748:	00e7a223          	sw	a4,4(a5)
   1174c:	268000ef          	jal	119b4 <__malloc_unlock>
   11750:	00840513          	addi	a0,s0,8
   11754:	c95ff06f          	j	113e8 <_malloc_r+0x240>
   11758:	0034d593          	srli	a1,s1,0x3
   1175c:	00848793          	addi	a5,s1,8
   11760:	a85ff06f          	j	111e4 <_malloc_r+0x3c>
   11764:	0014e693          	ori	a3,s1,1
   11768:	00d42223          	sw	a3,4(s0)
   1176c:	009404b3          	add	s1,s0,s1
   11770:	00992a23          	sw	s1,20(s2)
   11774:	00992823          	sw	s1,16(s2)
   11778:	00176693          	ori	a3,a4,1
   1177c:	00f407b3          	add	a5,s0,a5
   11780:	0104a623          	sw	a6,12(s1)
   11784:	0104a423          	sw	a6,8(s1)
   11788:	00d4a223          	sw	a3,4(s1)
   1178c:	00098513          	mv	a0,s3
   11790:	00e7a023          	sw	a4,0(a5)
   11794:	220000ef          	jal	119b4 <__malloc_unlock>
   11798:	00840513          	addi	a0,s0,8
   1179c:	c4dff06f          	j	113e8 <_malloc_r+0x240>
   117a0:	0067d713          	srli	a4,a5,0x6
   117a4:	03970613          	addi	a2,a4,57
   117a8:	00361613          	slli	a2,a2,0x3
   117ac:	03870693          	addi	a3,a4,56
   117b0:	ec5ff06f          	j	11674 <_malloc_r+0x4cc>
   117b4:	05c78593          	addi	a1,a5,92
   117b8:	05b78813          	addi	a6,a5,91
   117bc:	00359613          	slli	a2,a1,0x3
   117c0:	ac5ff06f          	j	11284 <_malloc_r+0xdc>
   117c4:	00832783          	lw	a5,8(t1)
   117c8:	fff58593          	addi	a1,a1,-1
   117cc:	1c679e63          	bne	a5,t1,119a8 <_malloc_r+0x800>
   117d0:	0035f793          	andi	a5,a1,3
   117d4:	ff830313          	addi	t1,t1,-8
   117d8:	fe0796e3          	bnez	a5,117c4 <_malloc_r+0x61c>
   117dc:	00492703          	lw	a4,4(s2)
   117e0:	fff64793          	not	a5,a2
   117e4:	00e7f7b3          	and	a5,a5,a4
   117e8:	00f92223          	sw	a5,4(s2)
   117ec:	00161613          	slli	a2,a2,0x1
   117f0:	c2c7e2e3          	bltu	a5,a2,11414 <_malloc_r+0x26c>
   117f4:	c20600e3          	beqz	a2,11414 <_malloc_r+0x26c>
   117f8:	00f67733          	and	a4,a2,a5
   117fc:	00071a63          	bnez	a4,11810 <_malloc_r+0x668>
   11800:	00161613          	slli	a2,a2,0x1
   11804:	00f67733          	and	a4,a2,a5
   11808:	004e0e13          	addi	t3,t3,4
   1180c:	fe070ae3          	beqz	a4,11800 <_malloc_r+0x658>
   11810:	000e0593          	mv	a1,t3
   11814:	b69ff06f          	j	1137c <_malloc_r+0x1d4>
   11818:	00840593          	addi	a1,s0,8
   1181c:	00098513          	mv	a0,s3
   11820:	e98ff0ef          	jal	10eb8 <_free_r>
   11824:	000c2583          	lw	a1,0(s8)
   11828:	00892b83          	lw	s7,8(s2)
   1182c:	d2dff06f          	j	11558 <_malloc_r+0x3b0>
   11830:	010a8a93          	addi	s5,s5,16
   11834:	c3dff06f          	j	11470 <_malloc_r+0x2c8>
   11838:	4026d693          	srai	a3,a3,0x2
   1183c:	00100793          	li	a5,1
   11840:	00d797b3          	sll	a5,a5,a3
   11844:	00f56533          	or	a0,a0,a5
   11848:	00a92223          	sw	a0,4(s2)
   1184c:	e55ff06f          	j	116a0 <_malloc_r+0x4f8>
   11850:	015b85b3          	add	a1,s7,s5
   11854:	40b005b3          	neg	a1,a1
   11858:	01459593          	slli	a1,a1,0x14
   1185c:	0145da13          	srli	s4,a1,0x14
   11860:	000a0593          	mv	a1,s4
   11864:	00098513          	mv	a0,s3
   11868:	1a0040ef          	jal	15a08 <_sbrk_r>
   1186c:	fff00793          	li	a5,-1
   11870:	c8f518e3          	bne	a0,a5,11500 <_malloc_r+0x358>
   11874:	00000a13          	li	s4,0
   11878:	c91ff06f          	j	11508 <_malloc_r+0x360>
   1187c:	00812c03          	lw	s8,8(sp)
   11880:	00100793          	li	a5,1
   11884:	00fba223          	sw	a5,4(s7)
   11888:	00098513          	mv	a0,s3
   1188c:	128000ef          	jal	119b4 <__malloc_unlock>
   11890:	01812a03          	lw	s4,24(sp)
   11894:	01412a83          	lw	s5,20(sp)
   11898:	01012b03          	lw	s6,16(sp)
   1189c:	00c12b83          	lw	s7,12(sp)
   118a0:	00412c83          	lw	s9,4(sp)
   118a4:	b41ff06f          	j	113e4 <_malloc_r+0x23c>
   118a8:	05400693          	li	a3,84
   118ac:	06e6ec63          	bltu	a3,a4,11924 <_malloc_r+0x77c>
   118b0:	00c7d713          	srli	a4,a5,0xc
   118b4:	06f70613          	addi	a2,a4,111
   118b8:	00361613          	slli	a2,a2,0x3
   118bc:	06e70693          	addi	a3,a4,110
   118c0:	db5ff06f          	j	11674 <_malloc_r+0x4cc>
   118c4:	15400713          	li	a4,340
   118c8:	06f76c63          	bltu	a4,a5,11940 <_malloc_r+0x798>
   118cc:	00f4d793          	srli	a5,s1,0xf
   118d0:	07878593          	addi	a1,a5,120
   118d4:	07778813          	addi	a6,a5,119
   118d8:	00359613          	slli	a2,a1,0x3
   118dc:	9a9ff06f          	j	11284 <_malloc_r+0xdc>
   118e0:	08c18c13          	addi	s8,gp,140 # 2389c <__malloc_current_mallinfo>
   118e4:	000c2703          	lw	a4,0(s8)
   118e8:	00ea8733          	add	a4,s5,a4
   118ec:	00ec2023          	sw	a4,0(s8)
   118f0:	bb9ff06f          	j	114a8 <_malloc_r+0x300>
   118f4:	00892403          	lw	s0,8(s2)
   118f8:	00442783          	lw	a5,4(s0)
   118fc:	c9dff06f          	j	11598 <_malloc_r+0x3f0>
   11900:	01451793          	slli	a5,a0,0x14
   11904:	ba0792e3          	bnez	a5,114a8 <_malloc_r+0x300>
   11908:	00892b83          	lw	s7,8(s2)
   1190c:	015b07b3          	add	a5,s6,s5
   11910:	0017e793          	ori	a5,a5,1
   11914:	00fba223          	sw	a5,4(s7)
   11918:	c45ff06f          	j	1155c <_malloc_r+0x3b4>
   1191c:	f171a823          	sw	s7,-240(gp) # 23720 <__malloc_sbrk_base>
   11920:	ba1ff06f          	j	114c0 <_malloc_r+0x318>
   11924:	15400693          	li	a3,340
   11928:	04e6e463          	bltu	a3,a4,11970 <_malloc_r+0x7c8>
   1192c:	00f7d713          	srli	a4,a5,0xf
   11930:	07870613          	addi	a2,a4,120
   11934:	00361613          	slli	a2,a2,0x3
   11938:	07770693          	addi	a3,a4,119
   1193c:	d39ff06f          	j	11674 <_malloc_r+0x4cc>
   11940:	55400713          	li	a4,1364
   11944:	04f76463          	bltu	a4,a5,1198c <_malloc_r+0x7e4>
   11948:	0124d793          	srli	a5,s1,0x12
   1194c:	07d78593          	addi	a1,a5,125
   11950:	07c78813          	addi	a6,a5,124
   11954:	00359613          	slli	a2,a1,0x3
   11958:	92dff06f          	j	11284 <_malloc_r+0xdc>
   1195c:	ff8c8c93          	addi	s9,s9,-8
   11960:	019a8ab3          	add	s5,s5,s9
   11964:	417a8ab3          	sub	s5,s5,s7
   11968:	00000a13          	li	s4,0
   1196c:	b9dff06f          	j	11508 <_malloc_r+0x360>
   11970:	55400693          	li	a3,1364
   11974:	02e6e463          	bltu	a3,a4,1199c <_malloc_r+0x7f4>
   11978:	0127d713          	srli	a4,a5,0x12
   1197c:	07d70613          	addi	a2,a4,125
   11980:	00361613          	slli	a2,a2,0x3
   11984:	07c70693          	addi	a3,a4,124
   11988:	cedff06f          	j	11674 <_malloc_r+0x4cc>
   1198c:	3f800613          	li	a2,1016
   11990:	07f00593          	li	a1,127
   11994:	07e00813          	li	a6,126
   11998:	8edff06f          	j	11284 <_malloc_r+0xdc>
   1199c:	3f800613          	li	a2,1016
   119a0:	07e00693          	li	a3,126
   119a4:	cd1ff06f          	j	11674 <_malloc_r+0x4cc>
   119a8:	00492783          	lw	a5,4(s2)
   119ac:	e41ff06f          	j	117ec <_malloc_r+0x644>

000119b0 <__malloc_lock>:
   119b0:	00008067          	ret

000119b4 <__malloc_unlock>:
   119b4:	00008067          	ret

000119b8 <_vfprintf_r>:
   119b8:	e2010113          	addi	sp,sp,-480
   119bc:	1c112e23          	sw	ra,476(sp)
   119c0:	1c812c23          	sw	s0,472(sp)
   119c4:	1d312623          	sw	s3,460(sp)
   119c8:	1d412423          	sw	s4,456(sp)
   119cc:	00058993          	mv	s3,a1
   119d0:	00060a13          	mv	s4,a2
   119d4:	00d12c23          	sw	a3,24(sp)
   119d8:	00050413          	mv	s0,a0
   119dc:	00a12623          	sw	a0,12(sp)
   119e0:	7b5030ef          	jal	15994 <_localeconv_r>
   119e4:	00052703          	lw	a4,0(a0)
   119e8:	00070513          	mv	a0,a4
   119ec:	02e12a23          	sw	a4,52(sp)
   119f0:	320040ef          	jal	15d10 <strlen>
   119f4:	02a12623          	sw	a0,44(sp)
   119f8:	0e012023          	sw	zero,224(sp)
   119fc:	0e012223          	sw	zero,228(sp)
   11a00:	0e012423          	sw	zero,232(sp)
   11a04:	0e012623          	sw	zero,236(sp)
   11a08:	00040863          	beqz	s0,11a18 <_vfprintf_r+0x60>
   11a0c:	03442703          	lw	a4,52(s0)
   11a10:	00071463          	bnez	a4,11a18 <_vfprintf_r+0x60>
   11a14:	6590106f          	j	1386c <_vfprintf_r+0x1eb4>
   11a18:	00c99703          	lh	a4,12(s3)
   11a1c:	0649a683          	lw	a3,100(s3)
   11a20:	000025b7          	lui	a1,0x2
   11a24:	01271613          	slli	a2,a4,0x12
   11a28:	38064263          	bltz	a2,11dac <_vfprintf_r+0x3f4>
   11a2c:	ffffe637          	lui	a2,0xffffe
   11a30:	00b76733          	or	a4,a4,a1
   11a34:	fff60613          	addi	a2,a2,-1 # ffffdfff <__BSS_END__+0xfffda5ab>
   11a38:	00c6f6b3          	and	a3,a3,a2
   11a3c:	00e99623          	sh	a4,12(s3)
   11a40:	01071713          	slli	a4,a4,0x10
   11a44:	41075713          	srai	a4,a4,0x10
   11a48:	06d9a223          	sw	a3,100(s3)
   11a4c:	00877693          	andi	a3,a4,8
   11a50:	2c068663          	beqz	a3,11d1c <_vfprintf_r+0x364>
   11a54:	0109a683          	lw	a3,16(s3)
   11a58:	2c068263          	beqz	a3,11d1c <_vfprintf_r+0x364>
   11a5c:	01a77713          	andi	a4,a4,26
   11a60:	00a00693          	li	a3,10
   11a64:	2cd70c63          	beq	a4,a3,11d3c <_vfprintf_r+0x384>
   11a68:	1c912a23          	sw	s1,468(sp)
   11a6c:	1d212823          	sw	s2,464(sp)
   11a70:	1d512223          	sw	s5,452(sp)
   11a74:	1d612023          	sw	s6,448(sp)
   11a78:	1b712e23          	sw	s7,444(sp)
   11a7c:	1b812c23          	sw	s8,440(sp)
   11a80:	1b912a23          	sw	s9,436(sp)
   11a84:	1ba12823          	sw	s10,432(sp)
   11a88:	1bb12623          	sw	s11,428(sp)
   11a8c:	000a0893          	mv	a7,s4
   11a90:	0008c703          	lbu	a4,0(a7)
   11a94:	0fc10a93          	addi	s5,sp,252
   11a98:	0c012e23          	sw	zero,220(sp)
   11a9c:	0c012c23          	sw	zero,216(sp)
   11aa0:	0d512a23          	sw	s5,212(sp)
   11aa4:	02012023          	sw	zero,32(sp)
   11aa8:	02012e23          	sw	zero,60(sp)
   11aac:	02012823          	sw	zero,48(sp)
   11ab0:	04012823          	sw	zero,80(sp)
   11ab4:	04012023          	sw	zero,64(sp)
   11ab8:	00012a23          	sw	zero,20(sp)
   11abc:	01312823          	sw	s3,16(sp)
   11ac0:	000a8413          	mv	s0,s5
   11ac4:	02500493          	li	s1,37
   11ac8:	01000913          	li	s2,16
   11acc:	22070863          	beqz	a4,11cfc <_vfprintf_r+0x344>
   11ad0:	00088c13          	mv	s8,a7
   11ad4:	2a970063          	beq	a4,s1,11d74 <_vfprintf_r+0x3bc>
   11ad8:	001c4703          	lbu	a4,1(s8)
   11adc:	001c0c13          	addi	s8,s8,1
   11ae0:	fe071ae3          	bnez	a4,11ad4 <_vfprintf_r+0x11c>
   11ae4:	411c0cb3          	sub	s9,s8,a7
   11ae8:	211c0a63          	beq	s8,a7,11cfc <_vfprintf_r+0x344>
   11aec:	0dc12703          	lw	a4,220(sp)
   11af0:	0d812583          	lw	a1,216(sp)
   11af4:	01142023          	sw	a7,0(s0)
   11af8:	01970733          	add	a4,a4,s9
   11afc:	00158593          	addi	a1,a1,1 # 2001 <exit-0xe0b3>
   11b00:	01942223          	sw	s9,4(s0)
   11b04:	0ce12e23          	sw	a4,220(sp)
   11b08:	0cb12c23          	sw	a1,216(sp)
   11b0c:	00700713          	li	a4,7
   11b10:	00840413          	addi	s0,s0,8
   11b14:	26b74863          	blt	a4,a1,11d84 <_vfprintf_r+0x3cc>
   11b18:	01412783          	lw	a5,20(sp)
   11b1c:	000c4703          	lbu	a4,0(s8)
   11b20:	019787b3          	add	a5,a5,s9
   11b24:	00f12a23          	sw	a5,20(sp)
   11b28:	1c070a63          	beqz	a4,11cfc <_vfprintf_r+0x344>
   11b2c:	001c0e13          	addi	t3,s8,1
   11b30:	00000313          	li	t1,0
   11b34:	001c4d83          	lbu	s11,1(s8)
   11b38:	0a010ba3          	sb	zero,183(sp)
   11b3c:	fff00c93          	li	s9,-1
   11b40:	00000b93          	li	s7,0
   11b44:	05a00c13          	li	s8,90
   11b48:	000e0993          	mv	s3,t3
   11b4c:	00030a13          	mv	s4,t1
   11b50:	00088b13          	mv	s6,a7
   11b54:	00198993          	addi	s3,s3,1
   11b58:	fe0d8793          	addi	a5,s11,-32
   11b5c:	04fc6863          	bltu	s8,a5,11bac <_vfprintf_r+0x1f4>
   11b60:	00022737          	lui	a4,0x22
   11b64:	00279793          	slli	a5,a5,0x2
   11b68:	59470713          	addi	a4,a4,1428 # 22594 <__clzsi2+0x1f4>
   11b6c:	00e787b3          	add	a5,a5,a4
   11b70:	0007a783          	lw	a5,0(a5)
   11b74:	00078067          	jr	a5
   11b78:	fd0d8793          	addi	a5,s11,-48
   11b7c:	00000b93          	li	s7,0
   11b80:	00900693          	li	a3,9
   11b84:	002b9713          	slli	a4,s7,0x2
   11b88:	0009cd83          	lbu	s11,0(s3)
   11b8c:	01770bb3          	add	s7,a4,s7
   11b90:	001b9b93          	slli	s7,s7,0x1
   11b94:	01778bb3          	add	s7,a5,s7
   11b98:	fd0d8793          	addi	a5,s11,-48
   11b9c:	00198993          	addi	s3,s3,1
   11ba0:	fef6f2e3          	bgeu	a3,a5,11b84 <_vfprintf_r+0x1cc>
   11ba4:	fe0d8793          	addi	a5,s11,-32
   11ba8:	fafc7ce3          	bgeu	s8,a5,11b60 <_vfprintf_r+0x1a8>
   11bac:	00098e13          	mv	t3,s3
   11bb0:	000a0313          	mv	t1,s4
   11bb4:	140d8463          	beqz	s11,11cfc <_vfprintf_r+0x344>
   11bb8:	00100d13          	li	s10,1
   11bbc:	13b10e23          	sb	s11,316(sp)
   11bc0:	0a010ba3          	sb	zero,183(sp)
   11bc4:	000d0c13          	mv	s8,s10
   11bc8:	00012e23          	sw	zero,28(sp)
   11bcc:	00000c93          	li	s9,0
   11bd0:	02012423          	sw	zero,40(sp)
   11bd4:	02012223          	sw	zero,36(sp)
   11bd8:	00000993          	li	s3,0
   11bdc:	13c10893          	addi	a7,sp,316
   11be0:	0dc12603          	lw	a2,220(sp)
   11be4:	08437f13          	andi	t5,t1,132
   11be8:	00060513          	mv	a0,a2
   11bec:	480f0a63          	beqz	t5,12080 <_vfprintf_r+0x6c8>
   11bf0:	0b714703          	lbu	a4,183(sp)
   11bf4:	06070663          	beqz	a4,11c60 <_vfprintf_r+0x2a8>
   11bf8:	0d812f83          	lw	t6,216(sp)
   11bfc:	00000713          	li	a4,0
   11c00:	00100593          	li	a1,1
   11c04:	00160613          	addi	a2,a2,1
   11c08:	001f8f93          	addi	t6,t6,1
   11c0c:	0b710513          	addi	a0,sp,183
   11c10:	00b42223          	sw	a1,4(s0)
   11c14:	00a42023          	sw	a0,0(s0)
   11c18:	0cc12e23          	sw	a2,220(sp)
   11c1c:	0df12c23          	sw	t6,216(sp)
   11c20:	00700593          	li	a1,7
   11c24:	00840413          	addi	s0,s0,8
   11c28:	2ff5c063          	blt	a1,t6,11f08 <_vfprintf_r+0x550>
   11c2c:	02070a63          	beqz	a4,11c60 <_vfprintf_r+0x2a8>
   11c30:	0d812f83          	lw	t6,216(sp)
   11c34:	00200713          	li	a4,2
   11c38:	00260613          	addi	a2,a2,2
   11c3c:	001f8f93          	addi	t6,t6,1
   11c40:	0b810593          	addi	a1,sp,184
   11c44:	00e42223          	sw	a4,4(s0)
   11c48:	00b42023          	sw	a1,0(s0)
   11c4c:	0cc12e23          	sw	a2,220(sp)
   11c50:	0df12c23          	sw	t6,216(sp)
   11c54:	00700713          	li	a4,7
   11c58:	00840413          	addi	s0,s0,8
   11c5c:	6df744e3          	blt	a4,t6,12b24 <_vfprintf_r+0x116c>
   11c60:	08000713          	li	a4,128
   11c64:	3eef02e3          	beq	t5,a4,12848 <_vfprintf_r+0xe90>
   11c68:	41ac8cb3          	sub	s9,s9,s10
   11c6c:	43904663          	bgtz	s9,12098 <_vfprintf_r+0x6e0>
   11c70:	10037713          	andi	a4,t1,256
   11c74:	52071063          	bnez	a4,12194 <_vfprintf_r+0x7dc>
   11c78:	0d812703          	lw	a4,216(sp)
   11c7c:	01a60633          	add	a2,a2,s10
   11c80:	0cc12e23          	sw	a2,220(sp)
   11c84:	00170713          	addi	a4,a4,1
   11c88:	01142023          	sw	a7,0(s0)
   11c8c:	01a42223          	sw	s10,4(s0)
   11c90:	0ce12c23          	sw	a4,216(sp)
   11c94:	00700793          	li	a5,7
   11c98:	30e7cc63          	blt	a5,a4,11fb0 <_vfprintf_r+0x5f8>
   11c9c:	00840413          	addi	s0,s0,8
   11ca0:	00437313          	andi	t1,t1,4
   11ca4:	00030663          	beqz	t1,11cb0 <_vfprintf_r+0x2f8>
   11ca8:	418b8cb3          	sub	s9,s7,s8
   11cac:	6b904ce3          	bgtz	s9,12b64 <_vfprintf_r+0x11ac>
   11cb0:	000b8893          	mv	a7,s7
   11cb4:	018bd463          	bge	s7,s8,11cbc <_vfprintf_r+0x304>
   11cb8:	000c0893          	mv	a7,s8
   11cbc:	01412783          	lw	a5,20(sp)
   11cc0:	011787b3          	add	a5,a5,a7
   11cc4:	00f12a23          	sw	a5,20(sp)
   11cc8:	48061ce3          	bnez	a2,12960 <_vfprintf_r+0xfa8>
   11ccc:	01c12783          	lw	a5,28(sp)
   11cd0:	0c012c23          	sw	zero,216(sp)
   11cd4:	00078c63          	beqz	a5,11cec <_vfprintf_r+0x334>
   11cd8:	01c12583          	lw	a1,28(sp)
   11cdc:	00c12503          	lw	a0,12(sp)
   11ce0:	03c12223          	sw	t3,36(sp)
   11ce4:	9d4ff0ef          	jal	10eb8 <_free_r>
   11ce8:	02412e03          	lw	t3,36(sp)
   11cec:	000a8413          	mv	s0,s5
   11cf0:	000e0893          	mv	a7,t3
   11cf4:	0008c703          	lbu	a4,0(a7)
   11cf8:	dc071ce3          	bnez	a4,11ad0 <_vfprintf_r+0x118>
   11cfc:	0dc12783          	lw	a5,220(sp)
   11d00:	01012983          	lw	s3,16(sp)
   11d04:	480786e3          	beqz	a5,12990 <_vfprintf_r+0xfd8>
   11d08:	00c12503          	lw	a0,12(sp)
   11d0c:	0d410613          	addi	a2,sp,212
   11d10:	00098593          	mv	a1,s3
   11d14:	7e1020ef          	jal	14cf4 <__sprint_r>
   11d18:	4790006f          	j	12990 <_vfprintf_r+0xfd8>
   11d1c:	00c12503          	lw	a0,12(sp)
   11d20:	00098593          	mv	a1,s3
   11d24:	155030ef          	jal	15678 <__swsetup_r>
   11d28:	08051663          	bnez	a0,11db4 <_vfprintf_r+0x3fc>
   11d2c:	00c99703          	lh	a4,12(s3)
   11d30:	00a00693          	li	a3,10
   11d34:	01a77713          	andi	a4,a4,26
   11d38:	d2d718e3          	bne	a4,a3,11a68 <_vfprintf_r+0xb0>
   11d3c:	00e99703          	lh	a4,14(s3)
   11d40:	d20744e3          	bltz	a4,11a68 <_vfprintf_r+0xb0>
   11d44:	01812683          	lw	a3,24(sp)
   11d48:	00c12503          	lw	a0,12(sp)
   11d4c:	000a0613          	mv	a2,s4
   11d50:	00098593          	mv	a1,s3
   11d54:	6e1020ef          	jal	14c34 <__sbprintf>
   11d58:	00a12a23          	sw	a0,20(sp)
   11d5c:	4650006f          	j	129c0 <_vfprintf_r+0x1008>
   11d60:	0009cd83          	lbu	s11,0(s3)
   11d64:	df1ff06f          	j	11b54 <_vfprintf_r+0x19c>
   11d68:	0009cd83          	lbu	s11,0(s3)
   11d6c:	020a6a13          	ori	s4,s4,32
   11d70:	de5ff06f          	j	11b54 <_vfprintf_r+0x19c>
   11d74:	411c0cb3          	sub	s9,s8,a7
   11d78:	d71c1ae3          	bne	s8,a7,11aec <_vfprintf_r+0x134>
   11d7c:	000c4703          	lbu	a4,0(s8)
   11d80:	da9ff06f          	j	11b28 <_vfprintf_r+0x170>
   11d84:	01012583          	lw	a1,16(sp)
   11d88:	00c12503          	lw	a0,12(sp)
   11d8c:	0d410613          	addi	a2,sp,212
   11d90:	01112e23          	sw	a7,28(sp)
   11d94:	761020ef          	jal	14cf4 <__sprint_r>
   11d98:	00050463          	beqz	a0,11da0 <_vfprintf_r+0x3e8>
   11d9c:	4810206f          	j	14a1c <_vfprintf_r+0x3064>
   11da0:	01c12883          	lw	a7,28(sp)
   11da4:	000a8413          	mv	s0,s5
   11da8:	d71ff06f          	j	11b18 <_vfprintf_r+0x160>
   11dac:	01269613          	slli	a2,a3,0x12
   11db0:	c8065ee3          	bgez	a2,11a4c <_vfprintf_r+0x94>
   11db4:	fff00793          	li	a5,-1
   11db8:	00f12a23          	sw	a5,20(sp)
   11dbc:	4050006f          	j	129c0 <_vfprintf_r+0x1008>
   11dc0:	008a7713          	andi	a4,s4,8
   11dc4:	00098e13          	mv	t3,s3
   11dc8:	000a0313          	mv	t1,s4
   11dcc:	000b0893          	mv	a7,s6
   11dd0:	00070463          	beqz	a4,11dd8 <_vfprintf_r+0x420>
   11dd4:	1fc0106f          	j	12fd0 <_vfprintf_r+0x1618>
   11dd8:	01812783          	lw	a5,24(sp)
   11ddc:	0a010513          	addi	a0,sp,160
   11de0:	03612423          	sw	s6,40(sp)
   11de4:	00778793          	addi	a5,a5,7
   11de8:	ff87f793          	andi	a5,a5,-8
   11dec:	0007a583          	lw	a1,0(a5)
   11df0:	0047a603          	lw	a2,4(a5)
   11df4:	00878793          	addi	a5,a5,8
   11df8:	03412223          	sw	s4,36(sp)
   11dfc:	01312e23          	sw	s3,28(sp)
   11e00:	00f12c23          	sw	a5,24(sp)
   11e04:	2c0100ef          	jal	220c4 <__extenddftf2>
   11e08:	0a012583          	lw	a1,160(sp)
   11e0c:	0a412603          	lw	a2,164(sp)
   11e10:	0a812683          	lw	a3,168(sp)
   11e14:	0ac12703          	lw	a4,172(sp)
   11e18:	02812883          	lw	a7,40(sp)
   11e1c:	02412303          	lw	t1,36(sp)
   11e20:	01c12e03          	lw	t3,28(sp)
   11e24:	0e010513          	addi	a0,sp,224
   11e28:	03112423          	sw	a7,40(sp)
   11e2c:	02612223          	sw	t1,36(sp)
   11e30:	01c12e23          	sw	t3,28(sp)
   11e34:	0ee12623          	sw	a4,236(sp)
   11e38:	0eb12023          	sw	a1,224(sp)
   11e3c:	0ec12223          	sw	a2,228(sp)
   11e40:	0ed12423          	sw	a3,232(sp)
   11e44:	418040ef          	jal	1625c <_ldcheck>
   11e48:	0aa12e23          	sw	a0,188(sp)
   11e4c:	00200713          	li	a4,2
   11e50:	01c12e03          	lw	t3,28(sp)
   11e54:	02412303          	lw	t1,36(sp)
   11e58:	02812883          	lw	a7,40(sp)
   11e5c:	00e51463          	bne	a0,a4,11e64 <_vfprintf_r+0x4ac>
   11e60:	2910106f          	j	138f0 <_vfprintf_r+0x1f38>
   11e64:	00100713          	li	a4,1
   11e68:	00e51463          	bne	a0,a4,11e70 <_vfprintf_r+0x4b8>
   11e6c:	3c50106f          	j	13a30 <_vfprintf_r+0x2078>
   11e70:	06100693          	li	a3,97
   11e74:	00dd9463          	bne	s11,a3,11e7c <_vfprintf_r+0x4c4>
   11e78:	65c0106f          	j	134d4 <_vfprintf_r+0x1b1c>
   11e7c:	04100693          	li	a3,65
   11e80:	05800793          	li	a5,88
   11e84:	00dd9463          	bne	s11,a3,11e8c <_vfprintf_r+0x4d4>
   11e88:	6500106f          	j	134d8 <_vfprintf_r+0x1b20>
   11e8c:	fff00693          	li	a3,-1
   11e90:	00dc9463          	bne	s9,a3,11e98 <_vfprintf_r+0x4e0>
   11e94:	3650206f          	j	149f8 <_vfprintf_r+0x3040>
   11e98:	fdfdf693          	andi	a3,s11,-33
   11e9c:	04700613          	li	a2,71
   11ea0:	00012e23          	sw	zero,28(sp)
   11ea4:	00c69663          	bne	a3,a2,11eb0 <_vfprintf_r+0x4f8>
   11ea8:	000c9463          	bnez	s9,11eb0 <_vfprintf_r+0x4f8>
   11eac:	00070c93          	mv	s9,a4
   11eb0:	0ec12e83          	lw	t4,236(sp)
   11eb4:	10036793          	ori	a5,t1,256
   11eb8:	02012c23          	sw	zero,56(sp)
   11ebc:	0e012283          	lw	t0,224(sp)
   11ec0:	0e412f83          	lw	t6,228(sp)
   11ec4:	0e812f03          	lw	t5,232(sp)
   11ec8:	00078a13          	mv	s4,a5
   11ecc:	000eda63          	bgez	t4,11ee0 <_vfprintf_r+0x528>
   11ed0:	80000737          	lui	a4,0x80000
   11ed4:	02d00793          	li	a5,45
   11ed8:	00eeceb3          	xor	t4,t4,a4
   11edc:	02f12c23          	sw	a5,56(sp)
   11ee0:	fbfd8713          	addi	a4,s11,-65
   11ee4:	02500693          	li	a3,37
   11ee8:	00e6f463          	bgeu	a3,a4,11ef0 <_vfprintf_r+0x538>
   11eec:	6400106f          	j	1352c <_vfprintf_r+0x1b74>
   11ef0:	000226b7          	lui	a3,0x22
   11ef4:	00271713          	slli	a4,a4,0x2
   11ef8:	70068693          	addi	a3,a3,1792 # 22700 <__clzsi2+0x360>
   11efc:	00d70733          	add	a4,a4,a3
   11f00:	00072703          	lw	a4,0(a4) # 80000000 <__BSS_END__+0x7ffdc5ac>
   11f04:	00070067          	jr	a4
   11f08:	01012583          	lw	a1,16(sp)
   11f0c:	00c12503          	lw	a0,12(sp)
   11f10:	0d410613          	addi	a2,sp,212
   11f14:	05112a23          	sw	a7,84(sp)
   11f18:	04612623          	sw	t1,76(sp)
   11f1c:	05e12423          	sw	t5,72(sp)
   11f20:	04e12223          	sw	a4,68(sp)
   11f24:	03c12c23          	sw	t3,56(sp)
   11f28:	5cd020ef          	jal	14cf4 <__sprint_r>
   11f2c:	240518e3          	bnez	a0,1297c <_vfprintf_r+0xfc4>
   11f30:	0dc12603          	lw	a2,220(sp)
   11f34:	05412883          	lw	a7,84(sp)
   11f38:	04c12303          	lw	t1,76(sp)
   11f3c:	04812f03          	lw	t5,72(sp)
   11f40:	04412703          	lw	a4,68(sp)
   11f44:	03812e03          	lw	t3,56(sp)
   11f48:	000a8413          	mv	s0,s5
   11f4c:	ce1ff06f          	j	11c2c <_vfprintf_r+0x274>
   11f50:	0d812583          	lw	a1,216(sp)
   11f54:	02c12783          	lw	a5,44(sp)
   11f58:	03412703          	lw	a4,52(sp)
   11f5c:	00158593          	addi	a1,a1,1
   11f60:	00c78633          	add	a2,a5,a2
   11f64:	00e42023          	sw	a4,0(s0)
   11f68:	00f42223          	sw	a5,4(s0)
   11f6c:	0cc12e23          	sw	a2,220(sp)
   11f70:	0cb12c23          	sw	a1,216(sp)
   11f74:	00700713          	li	a4,7
   11f78:	00840413          	addi	s0,s0,8
   11f7c:	00b75463          	bge	a4,a1,11f84 <_vfprintf_r+0x5cc>
   11f80:	7d10106f          	j	13f50 <_vfprintf_r+0x2598>
   11f84:	00055463          	bgez	a0,11f8c <_vfprintf_r+0x5d4>
   11f88:	1490206f          	j	148d0 <_vfprintf_r+0x2f18>
   11f8c:	02012783          	lw	a5,32(sp)
   11f90:	00158593          	addi	a1,a1,1
   11f94:	0cb12c23          	sw	a1,216(sp)
   11f98:	00c78633          	add	a2,a5,a2
   11f9c:	00f42223          	sw	a5,4(s0)
   11fa0:	0cc12e23          	sw	a2,220(sp)
   11fa4:	01142023          	sw	a7,0(s0)
   11fa8:	00700793          	li	a5,7
   11fac:	ceb7d8e3          	bge	a5,a1,11c9c <_vfprintf_r+0x2e4>
   11fb0:	01012583          	lw	a1,16(sp)
   11fb4:	00c12503          	lw	a0,12(sp)
   11fb8:	0d410613          	addi	a2,sp,212
   11fbc:	02612423          	sw	t1,40(sp)
   11fc0:	03c12223          	sw	t3,36(sp)
   11fc4:	531020ef          	jal	14cf4 <__sprint_r>
   11fc8:	1a051ae3          	bnez	a0,1297c <_vfprintf_r+0xfc4>
   11fcc:	0dc12603          	lw	a2,220(sp)
   11fd0:	02412e03          	lw	t3,36(sp)
   11fd4:	02812303          	lw	t1,40(sp)
   11fd8:	000a8413          	mv	s0,s5
   11fdc:	cc5ff06f          	j	11ca0 <_vfprintf_r+0x2e8>
   11fe0:	01812783          	lw	a5,24(sp)
   11fe4:	0a010ba3          	sb	zero,183(sp)
   11fe8:	00098e13          	mv	t3,s3
   11fec:	0007a883          	lw	a7,0(a5)
   11ff0:	000a0313          	mv	t1,s4
   11ff4:	00478993          	addi	s3,a5,4
   11ff8:	00089463          	bnez	a7,12000 <_vfprintf_r+0x648>
   11ffc:	3bc0106f          	j	133b8 <_vfprintf_r+0x1a00>
   12000:	000cd463          	bgez	s9,12008 <_vfprintf_r+0x650>
   12004:	4700106f          	j	13474 <_vfprintf_r+0x1abc>
   12008:	00088513          	mv	a0,a7
   1200c:	000c8613          	mv	a2,s9
   12010:	00000593          	li	a1,0
   12014:	03c12223          	sw	t3,36(sp)
   12018:	01112c23          	sw	a7,24(sp)
   1201c:	03412423          	sw	s4,40(sp)
   12020:	7fc030ef          	jal	1581c <memchr>
   12024:	00a12e23          	sw	a0,28(sp)
   12028:	0b714703          	lbu	a4,183(sp)
   1202c:	01812883          	lw	a7,24(sp)
   12030:	02412e03          	lw	t3,36(sp)
   12034:	02812303          	lw	t1,40(sp)
   12038:	00051463          	bnez	a0,12040 <_vfprintf_r+0x688>
   1203c:	7440206f          	j	14780 <_vfprintf_r+0x2dc8>
   12040:	41150d33          	sub	s10,a0,a7
   12044:	fffd4693          	not	a3,s10
   12048:	41f6d693          	srai	a3,a3,0x1f
   1204c:	00dd7c33          	and	s8,s10,a3
   12050:	00070463          	beqz	a4,12058 <_vfprintf_r+0x6a0>
   12054:	45c0106f          	j	134b0 <_vfprintf_r+0x1af8>
   12058:	01312c23          	sw	s3,24(sp)
   1205c:	0dc12603          	lw	a2,220(sp)
   12060:	00012e23          	sw	zero,28(sp)
   12064:	02012423          	sw	zero,40(sp)
   12068:	02012223          	sw	zero,36(sp)
   1206c:	08437f13          	andi	t5,t1,132
   12070:	00000c93          	li	s9,0
   12074:	00000993          	li	s3,0
   12078:	00060513          	mv	a0,a2
   1207c:	b60f1ae3          	bnez	t5,11bf0 <_vfprintf_r+0x238>
   12080:	418b8733          	sub	a4,s7,s8
   12084:	58e04ce3          	bgtz	a4,12e1c <_vfprintf_r+0x1464>
   12088:	0b714703          	lbu	a4,183(sp)
   1208c:	b60716e3          	bnez	a4,11bf8 <_vfprintf_r+0x240>
   12090:	41ac8cb3          	sub	s9,s9,s10
   12094:	bd905ee3          	blez	s9,11c70 <_vfprintf_r+0x2b8>
   12098:	00022737          	lui	a4,0x22
   1209c:	0d812583          	lw	a1,216(sp)
   120a0:	79870713          	addi	a4,a4,1944 # 22798 <zeroes.0>
   120a4:	09995863          	bge	s2,s9,12134 <_vfprintf_r+0x77c>
   120a8:	00040793          	mv	a5,s0
   120ac:	000c8a13          	mv	s4,s9
   120b0:	00700813          	li	a6,7
   120b4:	000e0b13          	mv	s6,t3
   120b8:	02612c23          	sw	t1,56(sp)
   120bc:	00088c93          	mv	s9,a7
   120c0:	00070413          	mv	s0,a4
   120c4:	00c0006f          	j	120d0 <_vfprintf_r+0x718>
   120c8:	ff0a0a13          	addi	s4,s4,-16
   120cc:	05495863          	bge	s2,s4,1211c <_vfprintf_r+0x764>
   120d0:	01060613          	addi	a2,a2,16
   120d4:	00158593          	addi	a1,a1,1
   120d8:	0087a023          	sw	s0,0(a5)
   120dc:	0127a223          	sw	s2,4(a5)
   120e0:	0cc12e23          	sw	a2,220(sp)
   120e4:	0cb12c23          	sw	a1,216(sp)
   120e8:	00878793          	addi	a5,a5,8
   120ec:	fcb85ee3          	bge	a6,a1,120c8 <_vfprintf_r+0x710>
   120f0:	01012583          	lw	a1,16(sp)
   120f4:	00c12503          	lw	a0,12(sp)
   120f8:	0d410613          	addi	a2,sp,212
   120fc:	3f9020ef          	jal	14cf4 <__sprint_r>
   12100:	06051ee3          	bnez	a0,1297c <_vfprintf_r+0xfc4>
   12104:	ff0a0a13          	addi	s4,s4,-16
   12108:	0dc12603          	lw	a2,220(sp)
   1210c:	0d812583          	lw	a1,216(sp)
   12110:	000a8793          	mv	a5,s5
   12114:	00700813          	li	a6,7
   12118:	fb494ce3          	blt	s2,s4,120d0 <_vfprintf_r+0x718>
   1211c:	03812303          	lw	t1,56(sp)
   12120:	000c8893          	mv	a7,s9
   12124:	00040713          	mv	a4,s0
   12128:	000b0e13          	mv	t3,s6
   1212c:	000a0c93          	mv	s9,s4
   12130:	00078413          	mv	s0,a5
   12134:	01960633          	add	a2,a2,s9
   12138:	00158593          	addi	a1,a1,1
   1213c:	00e42023          	sw	a4,0(s0)
   12140:	01942223          	sw	s9,4(s0)
   12144:	0cc12e23          	sw	a2,220(sp)
   12148:	0cb12c23          	sw	a1,216(sp)
   1214c:	00700713          	li	a4,7
   12150:	00840413          	addi	s0,s0,8
   12154:	b0b75ee3          	bge	a4,a1,11c70 <_vfprintf_r+0x2b8>
   12158:	01012583          	lw	a1,16(sp)
   1215c:	00c12503          	lw	a0,12(sp)
   12160:	0d410613          	addi	a2,sp,212
   12164:	05112423          	sw	a7,72(sp)
   12168:	04612223          	sw	t1,68(sp)
   1216c:	03c12c23          	sw	t3,56(sp)
   12170:	385020ef          	jal	14cf4 <__sprint_r>
   12174:	000514e3          	bnez	a0,1297c <_vfprintf_r+0xfc4>
   12178:	04412303          	lw	t1,68(sp)
   1217c:	0dc12603          	lw	a2,220(sp)
   12180:	04812883          	lw	a7,72(sp)
   12184:	10037713          	andi	a4,t1,256
   12188:	03812e03          	lw	t3,56(sp)
   1218c:	000a8413          	mv	s0,s5
   12190:	ae0704e3          	beqz	a4,11c78 <_vfprintf_r+0x2c0>
   12194:	06500713          	li	a4,101
   12198:	05b752e3          	bge	a4,s11,129dc <_vfprintf_r+0x1024>
   1219c:	0e412503          	lw	a0,228(sp)
   121a0:	0e812583          	lw	a1,232(sp)
   121a4:	0e012803          	lw	a6,224(sp)
   121a8:	0ec12703          	lw	a4,236(sp)
   121ac:	0aa12223          	sw	a0,164(sp)
   121b0:	0ab12423          	sw	a1,168(sp)
   121b4:	0a010513          	addi	a0,sp,160
   121b8:	09010593          	addi	a1,sp,144
   121bc:	05112623          	sw	a7,76(sp)
   121c0:	04c12423          	sw	a2,72(sp)
   121c4:	04612223          	sw	t1,68(sp)
   121c8:	03c12c23          	sw	t3,56(sp)
   121cc:	08012823          	sw	zero,144(sp)
   121d0:	08012a23          	sw	zero,148(sp)
   121d4:	08012c23          	sw	zero,152(sp)
   121d8:	08012e23          	sw	zero,156(sp)
   121dc:	0b012023          	sw	a6,160(sp)
   121e0:	0ae12623          	sw	a4,172(sp)
   121e4:	1740d0ef          	jal	1f358 <__eqtf2>
   121e8:	03812e03          	lw	t3,56(sp)
   121ec:	04412303          	lw	t1,68(sp)
   121f0:	04812603          	lw	a2,72(sp)
   121f4:	04c12883          	lw	a7,76(sp)
   121f8:	22051ee3          	bnez	a0,12c34 <_vfprintf_r+0x127c>
   121fc:	0d812783          	lw	a5,216(sp)
   12200:	00022737          	lui	a4,0x22
   12204:	47870713          	addi	a4,a4,1144 # 22478 <__clzsi2+0xd8>
   12208:	00160613          	addi	a2,a2,1
   1220c:	00178793          	addi	a5,a5,1
   12210:	00100593          	li	a1,1
   12214:	00e42023          	sw	a4,0(s0)
   12218:	00b42223          	sw	a1,4(s0)
   1221c:	0cc12e23          	sw	a2,220(sp)
   12220:	0cf12c23          	sw	a5,216(sp)
   12224:	00700713          	li	a4,7
   12228:	00840413          	addi	s0,s0,8
   1222c:	00f75463          	bge	a4,a5,12234 <_vfprintf_r+0x87c>
   12230:	6480106f          	j	13878 <_vfprintf_r+0x1ec0>
   12234:	0bc12783          	lw	a5,188(sp)
   12238:	02012703          	lw	a4,32(sp)
   1223c:	56e7d6e3          	bge	a5,a4,12fa8 <_vfprintf_r+0x15f0>
   12240:	02c12703          	lw	a4,44(sp)
   12244:	0d812783          	lw	a5,216(sp)
   12248:	03412683          	lw	a3,52(sp)
   1224c:	00e60633          	add	a2,a2,a4
   12250:	00178793          	addi	a5,a5,1
   12254:	00e42223          	sw	a4,4(s0)
   12258:	00d42023          	sw	a3,0(s0)
   1225c:	0cc12e23          	sw	a2,220(sp)
   12260:	0cf12c23          	sw	a5,216(sp)
   12264:	00700713          	li	a4,7
   12268:	00840413          	addi	s0,s0,8
   1226c:	00f75463          	bge	a4,a5,12274 <_vfprintf_r+0x8bc>
   12270:	1180106f          	j	13388 <_vfprintf_r+0x19d0>
   12274:	02012783          	lw	a5,32(sp)
   12278:	fff78c93          	addi	s9,a5,-1
   1227c:	a39052e3          	blez	s9,11ca0 <_vfprintf_r+0x2e8>
   12280:	00022737          	lui	a4,0x22
   12284:	01000d13          	li	s10,16
   12288:	0d812783          	lw	a5,216(sp)
   1228c:	79870713          	addi	a4,a4,1944 # 22798 <zeroes.0>
   12290:	019d4463          	blt	s10,s9,12298 <_vfprintf_r+0x8e0>
   12294:	6340106f          	j	138c8 <_vfprintf_r+0x1f10>
   12298:	00040693          	mv	a3,s0
   1229c:	000c8993          	mv	s3,s9
   122a0:	000d0b13          	mv	s6,s10
   122a4:	000c0c93          	mv	s9,s8
   122a8:	00700d93          	li	s11,7
   122ac:	000e0413          	mv	s0,t3
   122b0:	00030c13          	mv	s8,t1
   122b4:	00070a13          	mv	s4,a4
   122b8:	0100006f          	j	122c8 <_vfprintf_r+0x910>
   122bc:	ff098993          	addi	s3,s3,-16
   122c0:	013b4463          	blt	s6,s3,122c8 <_vfprintf_r+0x910>
   122c4:	5ec0106f          	j	138b0 <_vfprintf_r+0x1ef8>
   122c8:	01060613          	addi	a2,a2,16
   122cc:	00178793          	addi	a5,a5,1
   122d0:	0146a023          	sw	s4,0(a3)
   122d4:	01a6a223          	sw	s10,4(a3)
   122d8:	0cc12e23          	sw	a2,220(sp)
   122dc:	0cf12c23          	sw	a5,216(sp)
   122e0:	00868693          	addi	a3,a3,8
   122e4:	fcfddce3          	bge	s11,a5,122bc <_vfprintf_r+0x904>
   122e8:	01012583          	lw	a1,16(sp)
   122ec:	00c12503          	lw	a0,12(sp)
   122f0:	0d410613          	addi	a2,sp,212
   122f4:	201020ef          	jal	14cf4 <__sprint_r>
   122f8:	68051263          	bnez	a0,1297c <_vfprintf_r+0xfc4>
   122fc:	0dc12603          	lw	a2,220(sp)
   12300:	0d812783          	lw	a5,216(sp)
   12304:	000a8693          	mv	a3,s5
   12308:	fb5ff06f          	j	122bc <_vfprintf_r+0x904>
   1230c:	020a7793          	andi	a5,s4,32
   12310:	00098e13          	mv	t3,s3
   12314:	000a0313          	mv	t1,s4
   12318:	08079a63          	bnez	a5,123ac <_vfprintf_r+0x9f4>
   1231c:	01812783          	lw	a5,24(sp)
   12320:	010a7713          	andi	a4,s4,16
   12324:	0007a803          	lw	a6,0(a5)
   12328:	00478793          	addi	a5,a5,4
   1232c:	4e0716e3          	bnez	a4,13018 <_vfprintf_r+0x1660>
   12330:	040a7713          	andi	a4,s4,64
   12334:	00071463          	bnez	a4,1233c <_vfprintf_r+0x984>
   12338:	6880106f          	j	139c0 <_vfprintf_r+0x2008>
   1233c:	01081d13          	slli	s10,a6,0x10
   12340:	410d5d13          	srai	s10,s10,0x10
   12344:	41fd5713          	srai	a4,s10,0x1f
   12348:	00f12c23          	sw	a5,24(sp)
   1234c:	00070693          	mv	a3,a4
   12350:	0806c063          	bltz	a3,123d0 <_vfprintf_r+0xa18>
   12354:	080cce63          	bltz	s9,123f0 <_vfprintf_r+0xa38>
   12358:	00ed67b3          	or	a5,s10,a4
   1235c:	f7f37313          	andi	t1,t1,-129
   12360:	08079863          	bnez	a5,123f0 <_vfprintf_r+0xa38>
   12364:	000c9463          	bnez	s9,1236c <_vfprintf_r+0x9b4>
   12368:	2810106f          	j	13de8 <_vfprintf_r+0x2430>
   1236c:	03000793          	li	a5,48
   12370:	0940006f          	j	12404 <_vfprintf_r+0xa4c>
   12374:	01812703          	lw	a4,24(sp)
   12378:	00098e13          	mv	t3,s3
   1237c:	000a0313          	mv	t1,s4
   12380:	00072783          	lw	a5,0(a4)
   12384:	00100d13          	li	s10,1
   12388:	0a010ba3          	sb	zero,183(sp)
   1238c:	12f10e23          	sb	a5,316(sp)
   12390:	00470793          	addi	a5,a4,4
   12394:	00f12c23          	sw	a5,24(sp)
   12398:	82dff06f          	j	11bc4 <_vfprintf_r+0x20c>
   1239c:	020a7793          	andi	a5,s4,32
   123a0:	00098e13          	mv	t3,s3
   123a4:	010a6313          	ori	t1,s4,16
   123a8:	460784e3          	beqz	a5,13010 <_vfprintf_r+0x1658>
   123ac:	01812783          	lw	a5,24(sp)
   123b0:	00778793          	addi	a5,a5,7
   123b4:	ff87f793          	andi	a5,a5,-8
   123b8:	0047a683          	lw	a3,4(a5)
   123bc:	00878713          	addi	a4,a5,8
   123c0:	00e12c23          	sw	a4,24(sp)
   123c4:	0007ad03          	lw	s10,0(a5)
   123c8:	00068713          	mv	a4,a3
   123cc:	f806d4e3          	bgez	a3,12354 <_vfprintf_r+0x99c>
   123d0:	02d00693          	li	a3,45
   123d4:	01a037b3          	snez	a5,s10
   123d8:	40e00733          	neg	a4,a4
   123dc:	0ad10ba3          	sb	a3,183(sp)
   123e0:	40f70733          	sub	a4,a4,a5
   123e4:	41a00d33          	neg	s10,s10
   123e8:	000cc463          	bltz	s9,123f0 <_vfprintf_r+0xa38>
   123ec:	f7f37313          	andi	t1,t1,-129
   123f0:	46071ee3          	bnez	a4,1306c <_vfprintf_r+0x16b4>
   123f4:	00900793          	li	a5,9
   123f8:	47a7eae3          	bltu	a5,s10,1306c <_vfprintf_r+0x16b4>
   123fc:	030d0793          	addi	a5,s10,48
   12400:	0ff7f793          	zext.b	a5,a5
   12404:	18f10fa3          	sb	a5,415(sp)
   12408:	000c8c13          	mv	s8,s9
   1240c:	01904463          	bgtz	s9,12414 <_vfprintf_r+0xa5c>
   12410:	00100c13          	li	s8,1
   12414:	0b714703          	lbu	a4,183(sp)
   12418:	00100d13          	li	s10,1
   1241c:	19f10893          	addi	a7,sp,415
   12420:	0c070c63          	beqz	a4,124f8 <_vfprintf_r+0xb40>
   12424:	001c0c13          	addi	s8,s8,1
   12428:	00012e23          	sw	zero,28(sp)
   1242c:	02012423          	sw	zero,40(sp)
   12430:	02012223          	sw	zero,36(sp)
   12434:	00000993          	li	s3,0
   12438:	fa8ff06f          	j	11be0 <_vfprintf_r+0x228>
   1243c:	01812783          	lw	a5,24(sp)
   12440:	0007ab83          	lw	s7,0(a5)
   12444:	00478793          	addi	a5,a5,4
   12448:	360bd8e3          	bgez	s7,12fb8 <_vfprintf_r+0x1600>
   1244c:	41700bb3          	neg	s7,s7
   12450:	00f12c23          	sw	a5,24(sp)
   12454:	0009cd83          	lbu	s11,0(s3)
   12458:	004a6a13          	ori	s4,s4,4
   1245c:	ef8ff06f          	j	11b54 <_vfprintf_r+0x19c>
   12460:	020a7793          	andi	a5,s4,32
   12464:	00098e13          	mv	t3,s3
   12468:	010a6313          	ori	t1,s4,16
   1246c:	04079663          	bnez	a5,124b8 <_vfprintf_r+0xb00>
   12470:	01812783          	lw	a5,24(sp)
   12474:	00478793          	addi	a5,a5,4
   12478:	01812703          	lw	a4,24(sp)
   1247c:	0a010ba3          	sb	zero,183(sp)
   12480:	00072d03          	lw	s10,0(a4)
   12484:	00000713          	li	a4,0
   12488:	3c0ccce3          	bltz	s9,13060 <_vfprintf_r+0x16a8>
   1248c:	f7f37313          	andi	t1,t1,-129
   12490:	3c0d18e3          	bnez	s10,13060 <_vfprintf_r+0x16a8>
   12494:	00f12c23          	sw	a5,24(sp)
   12498:	000c9463          	bnez	s9,124a0 <_vfprintf_r+0xae8>
   1249c:	01c0106f          	j	134b8 <_vfprintf_r+0x1b00>
   124a0:	00000d13          	li	s10,0
   124a4:	f59ff06f          	j	123fc <_vfprintf_r+0xa44>
   124a8:	020a7793          	andi	a5,s4,32
   124ac:	00098e13          	mv	t3,s3
   124b0:	000a0313          	mv	t1,s4
   124b4:	36078ee3          	beqz	a5,13030 <_vfprintf_r+0x1678>
   124b8:	01812783          	lw	a5,24(sp)
   124bc:	0a010ba3          	sb	zero,183(sp)
   124c0:	00778793          	addi	a5,a5,7
   124c4:	ff87f793          	andi	a5,a5,-8
   124c8:	00878713          	addi	a4,a5,8
   124cc:	00e12c23          	sw	a4,24(sp)
   124d0:	0007ad03          	lw	s10,0(a5)
   124d4:	0047a703          	lw	a4,4(a5)
   124d8:	f00ccce3          	bltz	s9,123f0 <_vfprintf_r+0xa38>
   124dc:	00ed67b3          	or	a5,s10,a4
   124e0:	f7f37313          	andi	t1,t1,-129
   124e4:	f00796e3          	bnez	a5,123f0 <_vfprintf_r+0xa38>
   124e8:	fa0c9ce3          	bnez	s9,124a0 <_vfprintf_r+0xae8>
   124ec:	00000d13          	li	s10,0
   124f0:	00000c13          	li	s8,0
   124f4:	1a010893          	addi	a7,sp,416
   124f8:	00012e23          	sw	zero,28(sp)
   124fc:	02012423          	sw	zero,40(sp)
   12500:	02012223          	sw	zero,36(sp)
   12504:	00000993          	li	s3,0
   12508:	ed8ff06f          	j	11be0 <_vfprintf_r+0x228>
   1250c:	0009cd83          	lbu	s11,0(s3)
   12510:	008a6a13          	ori	s4,s4,8
   12514:	e40ff06f          	j	11b54 <_vfprintf_r+0x19c>
   12518:	020a7793          	andi	a5,s4,32
   1251c:	00098e13          	mv	t3,s3
   12520:	010a6e93          	ori	t4,s4,16
   12524:	2c0788e3          	beqz	a5,12ff4 <_vfprintf_r+0x163c>
   12528:	01812783          	lw	a5,24(sp)
   1252c:	00778793          	addi	a5,a5,7
   12530:	ff87f793          	andi	a5,a5,-8
   12534:	00878713          	addi	a4,a5,8
   12538:	00e12c23          	sw	a4,24(sp)
   1253c:	0047a583          	lw	a1,4(a5)
   12540:	0007a703          	lw	a4,0(a5)
   12544:	0a010ba3          	sb	zero,183(sp)
   12548:	bffef313          	andi	t1,t4,-1025
   1254c:	040cc063          	bltz	s9,1258c <_vfprintf_r+0xbd4>
   12550:	00b767b3          	or	a5,a4,a1
   12554:	b7fef313          	andi	t1,t4,-1153
   12558:	02079a63          	bnez	a5,1258c <_vfprintf_r+0xbd4>
   1255c:	020c9863          	bnez	s9,1258c <_vfprintf_r+0xbd4>
   12560:	001efd13          	andi	s10,t4,1
   12564:	740d0ae3          	beqz	s10,134b8 <_vfprintf_r+0x1b00>
   12568:	03000793          	li	a5,48
   1256c:	18f10fa3          	sb	a5,415(sp)
   12570:	000d0c13          	mv	s8,s10
   12574:	19f10893          	addi	a7,sp,415
   12578:	00012e23          	sw	zero,28(sp)
   1257c:	02012423          	sw	zero,40(sp)
   12580:	02012223          	sw	zero,36(sp)
   12584:	00000993          	li	s3,0
   12588:	e58ff06f          	j	11be0 <_vfprintf_r+0x228>
   1258c:	1a010893          	addi	a7,sp,416
   12590:	01d59793          	slli	a5,a1,0x1d
   12594:	00777693          	andi	a3,a4,7
   12598:	00375713          	srli	a4,a4,0x3
   1259c:	00088513          	mv	a0,a7
   125a0:	03068693          	addi	a3,a3,48
   125a4:	00e7e733          	or	a4,a5,a4
   125a8:	0035d593          	srli	a1,a1,0x3
   125ac:	00b767b3          	or	a5,a4,a1
   125b0:	fed88fa3          	sb	a3,-1(a7)
   125b4:	fff88893          	addi	a7,a7,-1
   125b8:	fc079ce3          	bnez	a5,12590 <_vfprintf_r+0xbd8>
   125bc:	00137713          	andi	a4,t1,1
   125c0:	04070063          	beqz	a4,12600 <_vfprintf_r+0xc48>
   125c4:	03000713          	li	a4,48
   125c8:	02e68c63          	beq	a3,a4,12600 <_vfprintf_r+0xc48>
   125cc:	ffe50513          	addi	a0,a0,-2
   125d0:	1a010793          	addi	a5,sp,416
   125d4:	fee88fa3          	sb	a4,-1(a7)
   125d8:	40a78d33          	sub	s10,a5,a0
   125dc:	000c8c13          	mv	s8,s9
   125e0:	01acd463          	bge	s9,s10,125e8 <_vfprintf_r+0xc30>
   125e4:	000d0c13          	mv	s8,s10
   125e8:	00050893          	mv	a7,a0
   125ec:	00012e23          	sw	zero,28(sp)
   125f0:	02012423          	sw	zero,40(sp)
   125f4:	02012223          	sw	zero,36(sp)
   125f8:	00000993          	li	s3,0
   125fc:	de4ff06f          	j	11be0 <_vfprintf_r+0x228>
   12600:	1a010793          	addi	a5,sp,416
   12604:	41178d33          	sub	s10,a5,a7
   12608:	000c8c13          	mv	s8,s9
   1260c:	efacd6e3          	bge	s9,s10,124f8 <_vfprintf_r+0xb40>
   12610:	000d0c13          	mv	s8,s10
   12614:	00012e23          	sw	zero,28(sp)
   12618:	02012423          	sw	zero,40(sp)
   1261c:	02012223          	sw	zero,36(sp)
   12620:	00000993          	li	s3,0
   12624:	dbcff06f          	j	11be0 <_vfprintf_r+0x228>
   12628:	0009cd83          	lbu	s11,0(s3)
   1262c:	06800793          	li	a5,104
   12630:	52fd8ae3          	beq	s11,a5,13364 <_vfprintf_r+0x19ac>
   12634:	040a6a13          	ori	s4,s4,64
   12638:	d1cff06f          	j	11b54 <_vfprintf_r+0x19c>
   1263c:	01812683          	lw	a3,24(sp)
   12640:	020a7793          	andi	a5,s4,32
   12644:	00098e13          	mv	t3,s3
   12648:	00468713          	addi	a4,a3,4
   1264c:	300792e3          	bnez	a5,13150 <_vfprintf_r+0x1798>
   12650:	010a7793          	andi	a5,s4,16
   12654:	00078463          	beqz	a5,1265c <_vfprintf_r+0xca4>
   12658:	3100106f          	j	13968 <_vfprintf_r+0x1fb0>
   1265c:	040a7793          	andi	a5,s4,64
   12660:	00078463          	beqz	a5,12668 <_vfprintf_r+0xcb0>
   12664:	0510106f          	j	13eb4 <_vfprintf_r+0x24fc>
   12668:	200a7313          	andi	t1,s4,512
   1266c:	00031463          	bnez	t1,12674 <_vfprintf_r+0xcbc>
   12670:	2f80106f          	j	13968 <_vfprintf_r+0x1fb0>
   12674:	01812783          	lw	a5,24(sp)
   12678:	01412683          	lw	a3,20(sp)
   1267c:	00e12c23          	sw	a4,24(sp)
   12680:	0007a783          	lw	a5,0(a5)
   12684:	00d78023          	sb	a3,0(a5)
   12688:	000e0893          	mv	a7,t3
   1268c:	e68ff06f          	j	11cf4 <_vfprintf_r+0x33c>
   12690:	0009cd83          	lbu	s11,0(s3)
   12694:	06c00793          	li	a5,108
   12698:	4afd8ee3          	beq	s11,a5,13354 <_vfprintf_r+0x199c>
   1269c:	010a6a13          	ori	s4,s4,16
   126a0:	cb4ff06f          	j	11b54 <_vfprintf_r+0x19c>
   126a4:	01812703          	lw	a4,24(sp)
   126a8:	000087b7          	lui	a5,0x8
   126ac:	83078793          	addi	a5,a5,-2000 # 7830 <exit-0x8884>
   126b0:	0af11c23          	sh	a5,184(sp)
   126b4:	0a010ba3          	sb	zero,183(sp)
   126b8:	00072683          	lw	a3,0(a4)
   126bc:	00098e13          	mv	t3,s3
   126c0:	00470793          	addi	a5,a4,4
   126c4:	00000613          	li	a2,0
   126c8:	2a0cc6e3          	bltz	s9,13174 <_vfprintf_r+0x17bc>
   126cc:	f7fa7713          	andi	a4,s4,-129
   126d0:	00276713          	ori	a4,a4,2
   126d4:	00068463          	beqz	a3,126dc <_vfprintf_r+0xd24>
   126d8:	2a80106f          	j	13980 <_vfprintf_r+0x1fc8>
   126dc:	000c9463          	bnez	s9,126e4 <_vfprintf_r+0xd2c>
   126e0:	7600106f          	j	13e40 <_vfprintf_r+0x2488>
   126e4:	03000693          	li	a3,48
   126e8:	00f12c23          	sw	a5,24(sp)
   126ec:	00070313          	mv	t1,a4
   126f0:	18d10fa3          	sb	a3,415(sp)
   126f4:	000c8c13          	mv	s8,s9
   126f8:	00012e23          	sw	zero,28(sp)
   126fc:	00100d13          	li	s10,1
   12700:	02012423          	sw	zero,40(sp)
   12704:	02012223          	sw	zero,36(sp)
   12708:	00000993          	li	s3,0
   1270c:	07800d93          	li	s11,120
   12710:	19f10893          	addi	a7,sp,415
   12714:	00000813          	li	a6,0
   12718:	2f90006f          	j	13210 <_vfprintf_r+0x1858>
   1271c:	020a7793          	andi	a5,s4,32
   12720:	00098e13          	mv	t3,s3
   12724:	240794e3          	bnez	a5,1316c <_vfprintf_r+0x17b4>
   12728:	01812783          	lw	a5,24(sp)
   1272c:	010a7693          	andi	a3,s4,16
   12730:	0007a703          	lw	a4,0(a5)
   12734:	00478793          	addi	a5,a5,4
   12738:	00068463          	beqz	a3,12740 <_vfprintf_r+0xd88>
   1273c:	1600206f          	j	1489c <_vfprintf_r+0x2ee4>
   12740:	040a7693          	andi	a3,s4,64
   12744:	00069463          	bnez	a3,1274c <_vfprintf_r+0xd94>
   12748:	2cc0106f          	j	13a14 <_vfprintf_r+0x205c>
   1274c:	01071713          	slli	a4,a4,0x10
   12750:	01075713          	srli	a4,a4,0x10
   12754:	00f12c23          	sw	a5,24(sp)
   12758:	000a0e93          	mv	t4,s4
   1275c:	00000593          	li	a1,0
   12760:	de5ff06f          	j	12544 <_vfprintf_r+0xb8c>
   12764:	00c12d03          	lw	s10,12(sp)
   12768:	000d0513          	mv	a0,s10
   1276c:	228030ef          	jal	15994 <_localeconv_r>
   12770:	00452783          	lw	a5,4(a0)
   12774:	00078513          	mv	a0,a5
   12778:	04f12023          	sw	a5,64(sp)
   1277c:	594030ef          	jal	15d10 <strlen>
   12780:	00050793          	mv	a5,a0
   12784:	000d0513          	mv	a0,s10
   12788:	04f12823          	sw	a5,80(sp)
   1278c:	00078d13          	mv	s10,a5
   12790:	204030ef          	jal	15994 <_localeconv_r>
   12794:	00852703          	lw	a4,8(a0)
   12798:	0009cd83          	lbu	s11,0(s3)
   1279c:	02e12823          	sw	a4,48(sp)
   127a0:	ba0d0a63          	beqz	s10,11b54 <_vfprintf_r+0x19c>
   127a4:	ba070863          	beqz	a4,11b54 <_vfprintf_r+0x19c>
   127a8:	00074783          	lbu	a5,0(a4)
   127ac:	ba078463          	beqz	a5,11b54 <_vfprintf_r+0x19c>
   127b0:	400a6a13          	ori	s4,s4,1024
   127b4:	ba0ff06f          	j	11b54 <_vfprintf_r+0x19c>
   127b8:	0009cd83          	lbu	s11,0(s3)
   127bc:	001a6a13          	ori	s4,s4,1
   127c0:	b94ff06f          	j	11b54 <_vfprintf_r+0x19c>
   127c4:	0b714783          	lbu	a5,183(sp)
   127c8:	0009cd83          	lbu	s11,0(s3)
   127cc:	b8079463          	bnez	a5,11b54 <_vfprintf_r+0x19c>
   127d0:	02000793          	li	a5,32
   127d4:	0af10ba3          	sb	a5,183(sp)
   127d8:	b7cff06f          	j	11b54 <_vfprintf_r+0x19c>
   127dc:	0009cd83          	lbu	s11,0(s3)
   127e0:	080a6a13          	ori	s4,s4,128
   127e4:	b70ff06f          	j	11b54 <_vfprintf_r+0x19c>
   127e8:	02b00793          	li	a5,43
   127ec:	0009cd83          	lbu	s11,0(s3)
   127f0:	0af10ba3          	sb	a5,183(sp)
   127f4:	b60ff06f          	j	11b54 <_vfprintf_r+0x19c>
   127f8:	0009cd83          	lbu	s11,0(s3)
   127fc:	02a00793          	li	a5,42
   12800:	00198693          	addi	a3,s3,1
   12804:	00fd9463          	bne	s11,a5,1280c <_vfprintf_r+0xe54>
   12808:	3380206f          	j	14b40 <_vfprintf_r+0x3188>
   1280c:	00900613          	li	a2,9
   12810:	fd0d8793          	addi	a5,s11,-48
   12814:	00000c93          	li	s9,0
   12818:	02f66463          	bltu	a2,a5,12840 <_vfprintf_r+0xe88>
   1281c:	002c9713          	slli	a4,s9,0x2
   12820:	0006cd83          	lbu	s11,0(a3)
   12824:	01970cb3          	add	s9,a4,s9
   12828:	001c9c93          	slli	s9,s9,0x1
   1282c:	00fc8cb3          	add	s9,s9,a5
   12830:	fd0d8793          	addi	a5,s11,-48
   12834:	00168693          	addi	a3,a3,1
   12838:	fef672e3          	bgeu	a2,a5,1281c <_vfprintf_r+0xe64>
   1283c:	260ccce3          	bltz	s9,132b4 <_vfprintf_r+0x18fc>
   12840:	00068993          	mv	s3,a3
   12844:	b14ff06f          	j	11b58 <_vfprintf_r+0x1a0>
   12848:	418b8833          	sub	a6,s7,s8
   1284c:	c1005e63          	blez	a6,11c68 <_vfprintf_r+0x2b0>
   12850:	00022737          	lui	a4,0x22
   12854:	01000f13          	li	t5,16
   12858:	0d812583          	lw	a1,216(sp)
   1285c:	79870713          	addi	a4,a4,1944 # 22798 <zeroes.0>
   12860:	0b0f5263          	bge	t5,a6,12904 <_vfprintf_r+0xf4c>
   12864:	00040793          	mv	a5,s0
   12868:	03312c23          	sw	s3,56(sp)
   1286c:	000f0293          	mv	t0,t5
   12870:	00700f93          	li	t6,7
   12874:	000e0a13          	mv	s4,t3
   12878:	00080413          	mv	s0,a6
   1287c:	00030b13          	mv	s6,t1
   12880:	05112223          	sw	a7,68(sp)
   12884:	00070993          	mv	s3,a4
   12888:	00c0006f          	j	12894 <_vfprintf_r+0xedc>
   1288c:	ff040413          	addi	s0,s0,-16
   12890:	0482dc63          	bge	t0,s0,128e8 <_vfprintf_r+0xf30>
   12894:	01060613          	addi	a2,a2,16
   12898:	00158593          	addi	a1,a1,1
   1289c:	0137a023          	sw	s3,0(a5)
   128a0:	01e7a223          	sw	t5,4(a5)
   128a4:	0cc12e23          	sw	a2,220(sp)
   128a8:	0cb12c23          	sw	a1,216(sp)
   128ac:	00878793          	addi	a5,a5,8
   128b0:	fcbfdee3          	bge	t6,a1,1288c <_vfprintf_r+0xed4>
   128b4:	01012583          	lw	a1,16(sp)
   128b8:	00c12503          	lw	a0,12(sp)
   128bc:	0d410613          	addi	a2,sp,212
   128c0:	434020ef          	jal	14cf4 <__sprint_r>
   128c4:	0a051c63          	bnez	a0,1297c <_vfprintf_r+0xfc4>
   128c8:	01000293          	li	t0,16
   128cc:	ff040413          	addi	s0,s0,-16
   128d0:	0dc12603          	lw	a2,220(sp)
   128d4:	0d812583          	lw	a1,216(sp)
   128d8:	000a8793          	mv	a5,s5
   128dc:	00700f93          	li	t6,7
   128e0:	00028f13          	mv	t5,t0
   128e4:	fa82c8e3          	blt	t0,s0,12894 <_vfprintf_r+0xedc>
   128e8:	00098713          	mv	a4,s3
   128ec:	04412883          	lw	a7,68(sp)
   128f0:	03812983          	lw	s3,56(sp)
   128f4:	00040813          	mv	a6,s0
   128f8:	000a0e13          	mv	t3,s4
   128fc:	00078413          	mv	s0,a5
   12900:	000b0313          	mv	t1,s6
   12904:	01060633          	add	a2,a2,a6
   12908:	00158593          	addi	a1,a1,1
   1290c:	00e42023          	sw	a4,0(s0)
   12910:	01042223          	sw	a6,4(s0)
   12914:	0cc12e23          	sw	a2,220(sp)
   12918:	0cb12c23          	sw	a1,216(sp)
   1291c:	00700713          	li	a4,7
   12920:	00840413          	addi	s0,s0,8
   12924:	b4b75263          	bge	a4,a1,11c68 <_vfprintf_r+0x2b0>
   12928:	01012583          	lw	a1,16(sp)
   1292c:	00c12503          	lw	a0,12(sp)
   12930:	0d410613          	addi	a2,sp,212
   12934:	05112423          	sw	a7,72(sp)
   12938:	04612223          	sw	t1,68(sp)
   1293c:	03c12c23          	sw	t3,56(sp)
   12940:	3b4020ef          	jal	14cf4 <__sprint_r>
   12944:	02051c63          	bnez	a0,1297c <_vfprintf_r+0xfc4>
   12948:	0dc12603          	lw	a2,220(sp)
   1294c:	03812e03          	lw	t3,56(sp)
   12950:	04412303          	lw	t1,68(sp)
   12954:	04812883          	lw	a7,72(sp)
   12958:	000a8413          	mv	s0,s5
   1295c:	b0cff06f          	j	11c68 <_vfprintf_r+0x2b0>
   12960:	01012583          	lw	a1,16(sp)
   12964:	00c12503          	lw	a0,12(sp)
   12968:	0d410613          	addi	a2,sp,212
   1296c:	03c12223          	sw	t3,36(sp)
   12970:	384020ef          	jal	14cf4 <__sprint_r>
   12974:	02412e03          	lw	t3,36(sp)
   12978:	b4050a63          	beqz	a0,11ccc <_vfprintf_r+0x314>
   1297c:	01012983          	lw	s3,16(sp)
   12980:	01c12583          	lw	a1,28(sp)
   12984:	00058663          	beqz	a1,12990 <_vfprintf_r+0xfd8>
   12988:	00c12503          	lw	a0,12(sp)
   1298c:	d2cfe0ef          	jal	10eb8 <_free_r>
   12990:	00c9d783          	lhu	a5,12(s3)
   12994:	1d412483          	lw	s1,468(sp)
   12998:	1d012903          	lw	s2,464(sp)
   1299c:	0407f793          	andi	a5,a5,64
   129a0:	1c412a83          	lw	s5,452(sp)
   129a4:	1c012b03          	lw	s6,448(sp)
   129a8:	1bc12b83          	lw	s7,444(sp)
   129ac:	1b812c03          	lw	s8,440(sp)
   129b0:	1b412c83          	lw	s9,436(sp)
   129b4:	1b012d03          	lw	s10,432(sp)
   129b8:	1ac12d83          	lw	s11,428(sp)
   129bc:	be079c63          	bnez	a5,11db4 <_vfprintf_r+0x3fc>
   129c0:	1dc12083          	lw	ra,476(sp)
   129c4:	1d812403          	lw	s0,472(sp)
   129c8:	01412503          	lw	a0,20(sp)
   129cc:	1cc12983          	lw	s3,460(sp)
   129d0:	1c812a03          	lw	s4,456(sp)
   129d4:	1e010113          	addi	sp,sp,480
   129d8:	00008067          	ret
   129dc:	0d812d03          	lw	s10,216(sp)
   129e0:	02012783          	lw	a5,32(sp)
   129e4:	00100713          	li	a4,1
   129e8:	00e60cb3          	add	s9,a2,a4
   129ec:	00ed0d33          	add	s10,s10,a4
   129f0:	00840d93          	addi	s11,s0,8
   129f4:	3cf75a63          	bge	a4,a5,12dc8 <_vfprintf_r+0x1410>
   129f8:	00100713          	li	a4,1
   129fc:	00e42223          	sw	a4,4(s0)
   12a00:	01142023          	sw	a7,0(s0)
   12a04:	0d912e23          	sw	s9,220(sp)
   12a08:	0da12c23          	sw	s10,216(sp)
   12a0c:	00700713          	li	a4,7
   12a10:	4da748e3          	blt	a4,s10,136e0 <_vfprintf_r+0x1d28>
   12a14:	02c12783          	lw	a5,44(sp)
   12a18:	03412703          	lw	a4,52(sp)
   12a1c:	001d0d13          	addi	s10,s10,1
   12a20:	00fc8cb3          	add	s9,s9,a5
   12a24:	00eda023          	sw	a4,0(s11)
   12a28:	00fda223          	sw	a5,4(s11)
   12a2c:	0d912e23          	sw	s9,220(sp)
   12a30:	0da12c23          	sw	s10,216(sp)
   12a34:	00700713          	li	a4,7
   12a38:	008d8d93          	addi	s11,s11,8
   12a3c:	4fa740e3          	blt	a4,s10,1371c <_vfprintf_r+0x1d64>
   12a40:	0e012503          	lw	a0,224(sp)
   12a44:	0e412583          	lw	a1,228(sp)
   12a48:	0e812603          	lw	a2,232(sp)
   12a4c:	0ec12703          	lw	a4,236(sp)
   12a50:	02012783          	lw	a5,32(sp)
   12a54:	0aa12023          	sw	a0,160(sp)
   12a58:	0ab12223          	sw	a1,164(sp)
   12a5c:	0a010513          	addi	a0,sp,160
   12a60:	09010593          	addi	a1,sp,144
   12a64:	02612423          	sw	t1,40(sp)
   12a68:	03c12223          	sw	t3,36(sp)
   12a6c:	03112c23          	sw	a7,56(sp)
   12a70:	08012823          	sw	zero,144(sp)
   12a74:	08012a23          	sw	zero,148(sp)
   12a78:	08012c23          	sw	zero,152(sp)
   12a7c:	08012e23          	sw	zero,156(sp)
   12a80:	0ac12423          	sw	a2,168(sp)
   12a84:	0ae12623          	sw	a4,172(sp)
   12a88:	fff78413          	addi	s0,a5,-1
   12a8c:	0cd0c0ef          	jal	1f358 <__eqtf2>
   12a90:	02412e03          	lw	t3,36(sp)
   12a94:	02812303          	lw	t1,40(sp)
   12a98:	46050e63          	beqz	a0,12f14 <_vfprintf_r+0x155c>
   12a9c:	03812883          	lw	a7,56(sp)
   12aa0:	001d0d13          	addi	s10,s10,1
   12aa4:	008c8cb3          	add	s9,s9,s0
   12aa8:	00188793          	addi	a5,a7,1
   12aac:	0da12c23          	sw	s10,216(sp)
   12ab0:	0d912e23          	sw	s9,220(sp)
   12ab4:	00fda023          	sw	a5,0(s11)
   12ab8:	008da223          	sw	s0,4(s11)
   12abc:	00700793          	li	a5,7
   12ac0:	7da7c063          	blt	a5,s10,13280 <_vfprintf_r+0x18c8>
   12ac4:	008d8d93          	addi	s11,s11,8
   12ac8:	03c12683          	lw	a3,60(sp)
   12acc:	0c410713          	addi	a4,sp,196
   12ad0:	001d0793          	addi	a5,s10,1
   12ad4:	01968633          	add	a2,a3,s9
   12ad8:	00eda023          	sw	a4,0(s11)
   12adc:	0cc12e23          	sw	a2,220(sp)
   12ae0:	0cf12c23          	sw	a5,216(sp)
   12ae4:	00dda223          	sw	a3,4(s11)
   12ae8:	00700713          	li	a4,7
   12aec:	008d8413          	addi	s0,s11,8
   12af0:	9af75863          	bge	a4,a5,11ca0 <_vfprintf_r+0x2e8>
   12af4:	01012583          	lw	a1,16(sp)
   12af8:	00c12503          	lw	a0,12(sp)
   12afc:	0d410613          	addi	a2,sp,212
   12b00:	02612423          	sw	t1,40(sp)
   12b04:	03c12223          	sw	t3,36(sp)
   12b08:	1ec020ef          	jal	14cf4 <__sprint_r>
   12b0c:	e60518e3          	bnez	a0,1297c <_vfprintf_r+0xfc4>
   12b10:	0dc12603          	lw	a2,220(sp)
   12b14:	02812303          	lw	t1,40(sp)
   12b18:	02412e03          	lw	t3,36(sp)
   12b1c:	000a8413          	mv	s0,s5
   12b20:	980ff06f          	j	11ca0 <_vfprintf_r+0x2e8>
   12b24:	01012583          	lw	a1,16(sp)
   12b28:	00c12503          	lw	a0,12(sp)
   12b2c:	0d410613          	addi	a2,sp,212
   12b30:	05112623          	sw	a7,76(sp)
   12b34:	04612423          	sw	t1,72(sp)
   12b38:	05e12223          	sw	t5,68(sp)
   12b3c:	03c12c23          	sw	t3,56(sp)
   12b40:	1b4020ef          	jal	14cf4 <__sprint_r>
   12b44:	e2051ce3          	bnez	a0,1297c <_vfprintf_r+0xfc4>
   12b48:	0dc12603          	lw	a2,220(sp)
   12b4c:	04c12883          	lw	a7,76(sp)
   12b50:	04812303          	lw	t1,72(sp)
   12b54:	04412f03          	lw	t5,68(sp)
   12b58:	03812e03          	lw	t3,56(sp)
   12b5c:	000a8413          	mv	s0,s5
   12b60:	900ff06f          	j	11c60 <_vfprintf_r+0x2a8>
   12b64:	00022837          	lui	a6,0x22
   12b68:	01000993          	li	s3,16
   12b6c:	0d812783          	lw	a5,216(sp)
   12b70:	7a880813          	addi	a6,a6,1960 # 227a8 <blanks.1>
   12b74:	0799de63          	bge	s3,s9,12bf0 <_vfprintf_r+0x1238>
   12b78:	00040713          	mv	a4,s0
   12b7c:	01012b03          	lw	s6,16(sp)
   12b80:	00098d93          	mv	s11,s3
   12b84:	00700d13          	li	s10,7
   12b88:	000e0413          	mv	s0,t3
   12b8c:	00080a13          	mv	s4,a6
   12b90:	00c0006f          	j	12b9c <_vfprintf_r+0x11e4>
   12b94:	ff0c8c93          	addi	s9,s9,-16
   12b98:	059dd663          	bge	s11,s9,12be4 <_vfprintf_r+0x122c>
   12b9c:	01060613          	addi	a2,a2,16
   12ba0:	00178793          	addi	a5,a5,1
   12ba4:	01472023          	sw	s4,0(a4)
   12ba8:	01372223          	sw	s3,4(a4)
   12bac:	0cc12e23          	sw	a2,220(sp)
   12bb0:	0cf12c23          	sw	a5,216(sp)
   12bb4:	00870713          	addi	a4,a4,8
   12bb8:	fcfd5ee3          	bge	s10,a5,12b94 <_vfprintf_r+0x11dc>
   12bbc:	00c12503          	lw	a0,12(sp)
   12bc0:	0d410613          	addi	a2,sp,212
   12bc4:	000b0593          	mv	a1,s6
   12bc8:	12c020ef          	jal	14cf4 <__sprint_r>
   12bcc:	4c051ee3          	bnez	a0,138a8 <_vfprintf_r+0x1ef0>
   12bd0:	ff0c8c93          	addi	s9,s9,-16
   12bd4:	0dc12603          	lw	a2,220(sp)
   12bd8:	0d812783          	lw	a5,216(sp)
   12bdc:	000a8713          	mv	a4,s5
   12be0:	fb9dcee3          	blt	s11,s9,12b9c <_vfprintf_r+0x11e4>
   12be4:	00040e13          	mv	t3,s0
   12be8:	000a0813          	mv	a6,s4
   12bec:	00070413          	mv	s0,a4
   12bf0:	01960633          	add	a2,a2,s9
   12bf4:	00178793          	addi	a5,a5,1
   12bf8:	0cc12e23          	sw	a2,220(sp)
   12bfc:	0cf12c23          	sw	a5,216(sp)
   12c00:	01042023          	sw	a6,0(s0)
   12c04:	01942223          	sw	s9,4(s0)
   12c08:	00700713          	li	a4,7
   12c0c:	8af75263          	bge	a4,a5,11cb0 <_vfprintf_r+0x2f8>
   12c10:	01012583          	lw	a1,16(sp)
   12c14:	00c12503          	lw	a0,12(sp)
   12c18:	0d410613          	addi	a2,sp,212
   12c1c:	03c12223          	sw	t3,36(sp)
   12c20:	0d4020ef          	jal	14cf4 <__sprint_r>
   12c24:	d4051ce3          	bnez	a0,1297c <_vfprintf_r+0xfc4>
   12c28:	0dc12603          	lw	a2,220(sp)
   12c2c:	02412e03          	lw	t3,36(sp)
   12c30:	880ff06f          	j	11cb0 <_vfprintf_r+0x2f8>
   12c34:	0bc12503          	lw	a0,188(sp)
   12c38:	34a056e3          	blez	a0,13784 <_vfprintf_r+0x1dcc>
   12c3c:	02012783          	lw	a5,32(sp)
   12c40:	00098c93          	mv	s9,s3
   12c44:	5f37cc63          	blt	a5,s3,1323c <_vfprintf_r+0x1884>
   12c48:	03905863          	blez	s9,12c78 <_vfprintf_r+0x12c0>
   12c4c:	0d812703          	lw	a4,216(sp)
   12c50:	01960633          	add	a2,a2,s9
   12c54:	01142023          	sw	a7,0(s0)
   12c58:	00170713          	addi	a4,a4,1
   12c5c:	01942223          	sw	s9,4(s0)
   12c60:	0cc12e23          	sw	a2,220(sp)
   12c64:	0ce12c23          	sw	a4,216(sp)
   12c68:	00700593          	li	a1,7
   12c6c:	00840413          	addi	s0,s0,8
   12c70:	00e5d463          	bge	a1,a4,12c78 <_vfprintf_r+0x12c0>
   12c74:	1880106f          	j	13dfc <_vfprintf_r+0x2444>
   12c78:	fffcc713          	not	a4,s9
   12c7c:	41f75713          	srai	a4,a4,0x1f
   12c80:	00ecfcb3          	and	s9,s9,a4
   12c84:	41998cb3          	sub	s9,s3,s9
   12c88:	77904263          	bgtz	s9,133ec <_vfprintf_r+0x1a34>
   12c8c:	40037713          	andi	a4,t1,1024
   12c90:	01388db3          	add	s11,a7,s3
   12c94:	6e0710e3          	bnez	a4,13b74 <_vfprintf_r+0x21bc>
   12c98:	0bc12c83          	lw	s9,188(sp)
   12c9c:	02012783          	lw	a5,32(sp)
   12ca0:	00fcc863          	blt	s9,a5,12cb0 <_vfprintf_r+0x12f8>
   12ca4:	00137713          	andi	a4,t1,1
   12ca8:	00071463          	bnez	a4,12cb0 <_vfprintf_r+0x12f8>
   12cac:	1e00106f          	j	13e8c <_vfprintf_r+0x24d4>
   12cb0:	0d812703          	lw	a4,216(sp)
   12cb4:	02c12783          	lw	a5,44(sp)
   12cb8:	03412683          	lw	a3,52(sp)
   12cbc:	00170713          	addi	a4,a4,1
   12cc0:	00f60633          	add	a2,a2,a5
   12cc4:	00d42023          	sw	a3,0(s0)
   12cc8:	00f42223          	sw	a5,4(s0)
   12ccc:	0cc12e23          	sw	a2,220(sp)
   12cd0:	0ce12c23          	sw	a4,216(sp)
   12cd4:	00700593          	li	a1,7
   12cd8:	00840413          	addi	s0,s0,8
   12cdc:	00e5d463          	bge	a1,a4,12ce4 <_vfprintf_r+0x132c>
   12ce0:	2350106f          	j	14714 <_vfprintf_r+0x2d5c>
   12ce4:	02012703          	lw	a4,32(sp)
   12ce8:	00e887b3          	add	a5,a7,a4
   12cec:	41b78d33          	sub	s10,a5,s11
   12cf0:	41970cb3          	sub	s9,a4,s9
   12cf4:	01acd463          	bge	s9,s10,12cfc <_vfprintf_r+0x1344>
   12cf8:	000c8d13          	mv	s10,s9
   12cfc:	03a05863          	blez	s10,12d2c <_vfprintf_r+0x1374>
   12d00:	0d812783          	lw	a5,216(sp)
   12d04:	01a60633          	add	a2,a2,s10
   12d08:	01b42023          	sw	s11,0(s0)
   12d0c:	00178793          	addi	a5,a5,1
   12d10:	01a42223          	sw	s10,4(s0)
   12d14:	0cc12e23          	sw	a2,220(sp)
   12d18:	0cf12c23          	sw	a5,216(sp)
   12d1c:	00700713          	li	a4,7
   12d20:	00840413          	addi	s0,s0,8
   12d24:	00f75463          	bge	a4,a5,12d2c <_vfprintf_r+0x1374>
   12d28:	27d0106f          	j	147a4 <_vfprintf_r+0x2dec>
   12d2c:	fffd4793          	not	a5,s10
   12d30:	41f7d793          	srai	a5,a5,0x1f
   12d34:	00fd7d33          	and	s10,s10,a5
   12d38:	41ac8cb3          	sub	s9,s9,s10
   12d3c:	01904463          	bgtz	s9,12d44 <_vfprintf_r+0x138c>
   12d40:	f61fe06f          	j	11ca0 <_vfprintf_r+0x2e8>
   12d44:	00022737          	lui	a4,0x22
   12d48:	01000d13          	li	s10,16
   12d4c:	0d812783          	lw	a5,216(sp)
   12d50:	79870713          	addi	a4,a4,1944 # 22798 <zeroes.0>
   12d54:	379d5ae3          	bge	s10,s9,138c8 <_vfprintf_r+0x1f10>
   12d58:	00040693          	mv	a3,s0
   12d5c:	000c8993          	mv	s3,s9
   12d60:	000d0b13          	mv	s6,s10
   12d64:	000c0c93          	mv	s9,s8
   12d68:	00700d93          	li	s11,7
   12d6c:	000e0413          	mv	s0,t3
   12d70:	00030c13          	mv	s8,t1
   12d74:	00070a13          	mv	s4,a4
   12d78:	00c0006f          	j	12d84 <_vfprintf_r+0x13cc>
   12d7c:	ff098993          	addi	s3,s3,-16
   12d80:	333b58e3          	bge	s6,s3,138b0 <_vfprintf_r+0x1ef8>
   12d84:	01060613          	addi	a2,a2,16
   12d88:	00178793          	addi	a5,a5,1
   12d8c:	0146a023          	sw	s4,0(a3)
   12d90:	01a6a223          	sw	s10,4(a3)
   12d94:	0cc12e23          	sw	a2,220(sp)
   12d98:	0cf12c23          	sw	a5,216(sp)
   12d9c:	00868693          	addi	a3,a3,8
   12da0:	fcfddee3          	bge	s11,a5,12d7c <_vfprintf_r+0x13c4>
   12da4:	01012583          	lw	a1,16(sp)
   12da8:	00c12503          	lw	a0,12(sp)
   12dac:	0d410613          	addi	a2,sp,212
   12db0:	745010ef          	jal	14cf4 <__sprint_r>
   12db4:	bc0514e3          	bnez	a0,1297c <_vfprintf_r+0xfc4>
   12db8:	0dc12603          	lw	a2,220(sp)
   12dbc:	0d812783          	lw	a5,216(sp)
   12dc0:	000a8693          	mv	a3,s5
   12dc4:	fb9ff06f          	j	12d7c <_vfprintf_r+0x13c4>
   12dc8:	00e37633          	and	a2,t1,a4
   12dcc:	c20616e3          	bnez	a2,129f8 <_vfprintf_r+0x1040>
   12dd0:	01142023          	sw	a7,0(s0)
   12dd4:	00e42223          	sw	a4,4(s0)
   12dd8:	0d912e23          	sw	s9,220(sp)
   12ddc:	0da12c23          	sw	s10,216(sp)
   12de0:	00700793          	li	a5,7
   12de4:	cfa7d2e3          	bge	a5,s10,12ac8 <_vfprintf_r+0x1110>
   12de8:	01012583          	lw	a1,16(sp)
   12dec:	00c12503          	lw	a0,12(sp)
   12df0:	0d410613          	addi	a2,sp,212
   12df4:	02612423          	sw	t1,40(sp)
   12df8:	03c12223          	sw	t3,36(sp)
   12dfc:	6f9010ef          	jal	14cf4 <__sprint_r>
   12e00:	b6051ee3          	bnez	a0,1297c <_vfprintf_r+0xfc4>
   12e04:	0dc12c83          	lw	s9,220(sp)
   12e08:	0d812d03          	lw	s10,216(sp)
   12e0c:	02812303          	lw	t1,40(sp)
   12e10:	02412e03          	lw	t3,36(sp)
   12e14:	000a8d93          	mv	s11,s5
   12e18:	cb1ff06f          	j	12ac8 <_vfprintf_r+0x1110>
   12e1c:	0d812583          	lw	a1,216(sp)
   12e20:	00022837          	lui	a6,0x22
   12e24:	01000f93          	li	t6,16
   12e28:	7a880813          	addi	a6,a6,1960 # 227a8 <blanks.1>
   12e2c:	0aefd663          	bge	t6,a4,12ed8 <_vfprintf_r+0x1520>
   12e30:	00040793          	mv	a5,s0
   12e34:	05312223          	sw	s3,68(sp)
   12e38:	000f8393          	mv	t2,t6
   12e3c:	00700293          	li	t0,7
   12e40:	03c12c23          	sw	t3,56(sp)
   12e44:	00070413          	mv	s0,a4
   12e48:	000f0a13          	mv	s4,t5
   12e4c:	00030b13          	mv	s6,t1
   12e50:	05112423          	sw	a7,72(sp)
   12e54:	00080993          	mv	s3,a6
   12e58:	00c0006f          	j	12e64 <_vfprintf_r+0x14ac>
   12e5c:	ff040413          	addi	s0,s0,-16
   12e60:	0483dc63          	bge	t2,s0,12eb8 <_vfprintf_r+0x1500>
   12e64:	01050513          	addi	a0,a0,16
   12e68:	00158593          	addi	a1,a1,1
   12e6c:	0137a023          	sw	s3,0(a5)
   12e70:	01f7a223          	sw	t6,4(a5)
   12e74:	0ca12e23          	sw	a0,220(sp)
   12e78:	0cb12c23          	sw	a1,216(sp)
   12e7c:	00878793          	addi	a5,a5,8
   12e80:	fcb2dee3          	bge	t0,a1,12e5c <_vfprintf_r+0x14a4>
   12e84:	01012583          	lw	a1,16(sp)
   12e88:	00c12503          	lw	a0,12(sp)
   12e8c:	0d410613          	addi	a2,sp,212
   12e90:	665010ef          	jal	14cf4 <__sprint_r>
   12e94:	ae0514e3          	bnez	a0,1297c <_vfprintf_r+0xfc4>
   12e98:	01000393          	li	t2,16
   12e9c:	ff040413          	addi	s0,s0,-16
   12ea0:	0dc12503          	lw	a0,220(sp)
   12ea4:	0d812583          	lw	a1,216(sp)
   12ea8:	000a8793          	mv	a5,s5
   12eac:	00700293          	li	t0,7
   12eb0:	00038f93          	mv	t6,t2
   12eb4:	fa83c8e3          	blt	t2,s0,12e64 <_vfprintf_r+0x14ac>
   12eb8:	00098813          	mv	a6,s3
   12ebc:	03812e03          	lw	t3,56(sp)
   12ec0:	04812883          	lw	a7,72(sp)
   12ec4:	04412983          	lw	s3,68(sp)
   12ec8:	00040713          	mv	a4,s0
   12ecc:	000a0f13          	mv	t5,s4
   12ed0:	00078413          	mv	s0,a5
   12ed4:	000b0313          	mv	t1,s6
   12ed8:	00a70633          	add	a2,a4,a0
   12edc:	00158f93          	addi	t6,a1,1
   12ee0:	00e42223          	sw	a4,4(s0)
   12ee4:	0cc12e23          	sw	a2,220(sp)
   12ee8:	0df12c23          	sw	t6,216(sp)
   12eec:	01042023          	sw	a6,0(s0)
   12ef0:	00700713          	li	a4,7
   12ef4:	11f74ae3          	blt	a4,t6,13808 <_vfprintf_r+0x1e50>
   12ef8:	0b714703          	lbu	a4,183(sp)
   12efc:	00840413          	addi	s0,s0,8
   12f00:	0c071263          	bnez	a4,12fc4 <_vfprintf_r+0x160c>
   12f04:	000f1463          	bnez	t5,12f0c <_vfprintf_r+0x1554>
   12f08:	d61fe06f          	j	11c68 <_vfprintf_r+0x2b0>
   12f0c:	00000f13          	li	t5,0
   12f10:	d25fe06f          	j	11c34 <_vfprintf_r+0x27c>
   12f14:	02012703          	lw	a4,32(sp)
   12f18:	00100793          	li	a5,1
   12f1c:	bae7d6e3          	bge	a5,a4,12ac8 <_vfprintf_r+0x1110>
   12f20:	01100793          	li	a5,17
   12f24:	00e7c463          	blt	a5,a4,12f2c <_vfprintf_r+0x1574>
   12f28:	40d0106f          	j	14b34 <_vfprintf_r+0x317c>
   12f2c:	00022737          	lui	a4,0x22
   12f30:	79870713          	addi	a4,a4,1944 # 22798 <zeroes.0>
   12f34:	000c8693          	mv	a3,s9
   12f38:	00040993          	mv	s3,s0
   12f3c:	000c0c93          	mv	s9,s8
   12f40:	01000793          	li	a5,16
   12f44:	00700b13          	li	s6,7
   12f48:	000e0413          	mv	s0,t3
   12f4c:	00030c13          	mv	s8,t1
   12f50:	00070a13          	mv	s4,a4
   12f54:	00c0006f          	j	12f60 <_vfprintf_r+0x15a8>
   12f58:	ff098993          	addi	s3,s3,-16
   12f5c:	2f37d663          	bge	a5,s3,13248 <_vfprintf_r+0x1890>
   12f60:	01068693          	addi	a3,a3,16
   12f64:	001d0d13          	addi	s10,s10,1
   12f68:	014da023          	sw	s4,0(s11)
   12f6c:	00fda223          	sw	a5,4(s11)
   12f70:	0cd12e23          	sw	a3,220(sp)
   12f74:	0da12c23          	sw	s10,216(sp)
   12f78:	008d8d93          	addi	s11,s11,8
   12f7c:	fdab5ee3          	bge	s6,s10,12f58 <_vfprintf_r+0x15a0>
   12f80:	01012583          	lw	a1,16(sp)
   12f84:	00c12503          	lw	a0,12(sp)
   12f88:	0d410613          	addi	a2,sp,212
   12f8c:	569010ef          	jal	14cf4 <__sprint_r>
   12f90:	9e0516e3          	bnez	a0,1297c <_vfprintf_r+0xfc4>
   12f94:	0dc12683          	lw	a3,220(sp)
   12f98:	0d812d03          	lw	s10,216(sp)
   12f9c:	000a8d93          	mv	s11,s5
   12fa0:	01000793          	li	a5,16
   12fa4:	fb5ff06f          	j	12f58 <_vfprintf_r+0x15a0>
   12fa8:	00137793          	andi	a5,t1,1
   12fac:	00079463          	bnez	a5,12fb4 <_vfprintf_r+0x15fc>
   12fb0:	cf1fe06f          	j	11ca0 <_vfprintf_r+0x2e8>
   12fb4:	a8cff06f          	j	12240 <_vfprintf_r+0x888>
   12fb8:	0009cd83          	lbu	s11,0(s3)
   12fbc:	00f12c23          	sw	a5,24(sp)
   12fc0:	b95fe06f          	j	11b54 <_vfprintf_r+0x19c>
   12fc4:	000f0713          	mv	a4,t5
   12fc8:	00000f13          	li	t5,0
   12fcc:	c35fe06f          	j	11c00 <_vfprintf_r+0x248>
   12fd0:	01812783          	lw	a5,24(sp)
   12fd4:	0007a703          	lw	a4,0(a5)
   12fd8:	00478793          	addi	a5,a5,4
   12fdc:	00f12c23          	sw	a5,24(sp)
   12fe0:	00072583          	lw	a1,0(a4)
   12fe4:	00472603          	lw	a2,4(a4)
   12fe8:	00872683          	lw	a3,8(a4)
   12fec:	00c72703          	lw	a4,12(a4)
   12ff0:	e35fe06f          	j	11e24 <_vfprintf_r+0x46c>
   12ff4:	01812783          	lw	a5,24(sp)
   12ff8:	00478793          	addi	a5,a5,4
   12ffc:	01812703          	lw	a4,24(sp)
   13000:	00000593          	li	a1,0
   13004:	00f12c23          	sw	a5,24(sp)
   13008:	00072703          	lw	a4,0(a4)
   1300c:	d38ff06f          	j	12544 <_vfprintf_r+0xb8c>
   13010:	01812783          	lw	a5,24(sp)
   13014:	00478793          	addi	a5,a5,4
   13018:	01812703          	lw	a4,24(sp)
   1301c:	00f12c23          	sw	a5,24(sp)
   13020:	00072d03          	lw	s10,0(a4)
   13024:	41fd5713          	srai	a4,s10,0x1f
   13028:	00070693          	mv	a3,a4
   1302c:	b24ff06f          	j	12350 <_vfprintf_r+0x998>
   13030:	01812783          	lw	a5,24(sp)
   13034:	010a7713          	andi	a4,s4,16
   13038:	0007a683          	lw	a3,0(a5)
   1303c:	00478793          	addi	a5,a5,4
   13040:	c2071c63          	bnez	a4,12478 <_vfprintf_r+0xac0>
   13044:	040a7713          	andi	a4,s4,64
   13048:	18070ce3          	beqz	a4,139e0 <_vfprintf_r+0x2028>
   1304c:	01069d13          	slli	s10,a3,0x10
   13050:	0a010ba3          	sb	zero,183(sp)
   13054:	010d5d13          	srli	s10,s10,0x10
   13058:	00000713          	li	a4,0
   1305c:	c20cd863          	bgez	s9,1248c <_vfprintf_r+0xad4>
   13060:	00f12c23          	sw	a5,24(sp)
   13064:	00900793          	li	a5,9
   13068:	b9a7fa63          	bgeu	a5,s10,123fc <_vfprintf_r+0xa44>
   1306c:	1a010c13          	addi	s8,sp,416
   13070:	00000793          	li	a5,0
   13074:	03712223          	sw	s7,36(sp)
   13078:	02812423          	sw	s0,40(sp)
   1307c:	40037993          	andi	s3,t1,1024
   13080:	000c0413          	mv	s0,s8
   13084:	03c12023          	sw	t3,32(sp)
   13088:	000d0c13          	mv	s8,s10
   1308c:	02612c23          	sw	t1,56(sp)
   13090:	000c8d13          	mv	s10,s9
   13094:	00078b93          	mv	s7,a5
   13098:	00070c93          	mv	s9,a4
   1309c:	0340006f          	j	130d0 <_vfprintf_r+0x1718>
   130a0:	000c0513          	mv	a0,s8
   130a4:	000c8593          	mv	a1,s9
   130a8:	00a00613          	li	a2,10
   130ac:	00000693          	li	a3,0
   130b0:	01812e23          	sw	s8,28(sp)
   130b4:	000c8b13          	mv	s6,s9
   130b8:	720090ef          	jal	1c7d8 <__udivdi3>
   130bc:	000a0413          	mv	s0,s4
   130c0:	00050c13          	mv	s8,a0
   130c4:	00058c93          	mv	s9,a1
   130c8:	000b1463          	bnez	s6,130d0 <_vfprintf_r+0x1718>
   130cc:	5600106f          	j	1462c <_vfprintf_r+0x2c74>
   130d0:	00a00613          	li	a2,10
   130d4:	00000693          	li	a3,0
   130d8:	000c0513          	mv	a0,s8
   130dc:	000c8593          	mv	a1,s9
   130e0:	4c1090ef          	jal	1cda0 <__umoddi3>
   130e4:	03050513          	addi	a0,a0,48
   130e8:	fea40fa3          	sb	a0,-1(s0)
   130ec:	fff40a13          	addi	s4,s0,-1
   130f0:	001b8b93          	addi	s7,s7,1
   130f4:	fa0986e3          	beqz	s3,130a0 <_vfprintf_r+0x16e8>
   130f8:	03012783          	lw	a5,48(sp)
   130fc:	0007c783          	lbu	a5,0(a5)
   13100:	fb7790e3          	bne	a5,s7,130a0 <_vfprintf_r+0x16e8>
   13104:	0ff00793          	li	a5,255
   13108:	f8fb8ce3          	beq	s7,a5,130a0 <_vfprintf_r+0x16e8>
   1310c:	200c92e3          	bnez	s9,13b10 <_vfprintf_r+0x2158>
   13110:	00900793          	li	a5,9
   13114:	1f87eee3          	bltu	a5,s8,13b10 <_vfprintf_r+0x2158>
   13118:	1a010793          	addi	a5,sp,416
   1311c:	000d0c93          	mv	s9,s10
   13120:	02012e03          	lw	t3,32(sp)
   13124:	41478d33          	sub	s10,a5,s4
   13128:	03712023          	sw	s7,32(sp)
   1312c:	02812403          	lw	s0,40(sp)
   13130:	03812303          	lw	t1,56(sp)
   13134:	02412b83          	lw	s7,36(sp)
   13138:	000a0893          	mv	a7,s4
   1313c:	000c8c13          	mv	s8,s9
   13140:	01acd463          	bge	s9,s10,13148 <_vfprintf_r+0x1790>
   13144:	000d0c13          	mv	s8,s10
   13148:	0b714703          	lbu	a4,183(sp)
   1314c:	ad4ff06f          	j	12420 <_vfprintf_r+0xa68>
   13150:	01412603          	lw	a2,20(sp)
   13154:	0006a783          	lw	a5,0(a3)
   13158:	00e12c23          	sw	a4,24(sp)
   1315c:	41f65693          	srai	a3,a2,0x1f
   13160:	00c7a023          	sw	a2,0(a5)
   13164:	00d7a223          	sw	a3,4(a5)
   13168:	d20ff06f          	j	12688 <_vfprintf_r+0xcd0>
   1316c:	000a0e93          	mv	t4,s4
   13170:	bb8ff06f          	j	12528 <_vfprintf_r+0xb70>
   13174:	00022537          	lui	a0,0x22
   13178:	00f6f613          	andi	a2,a3,15
   1317c:	44850713          	addi	a4,a0,1096 # 22448 <__clzsi2+0xa8>
   13180:	00c70733          	add	a4,a4,a2
   13184:	00074703          	lbu	a4,0(a4)
   13188:	0046d693          	srli	a3,a3,0x4
   1318c:	002a6313          	ori	t1,s4,2
   13190:	18e10fa3          	sb	a4,415(sp)
   13194:	00000613          	li	a2,0
   13198:	00069463          	bnez	a3,131a0 <_vfprintf_r+0x17e8>
   1319c:	2290106f          	j	14bc4 <_vfprintf_r+0x320c>
   131a0:	00f12c23          	sw	a5,24(sp)
   131a4:	44850513          	addi	a0,a0,1096
   131a8:	07800d93          	li	s11,120
   131ac:	00200593          	li	a1,2
   131b0:	19f10893          	addi	a7,sp,415
   131b4:	00f6f793          	andi	a5,a3,15
   131b8:	00f507b3          	add	a5,a0,a5
   131bc:	0007c783          	lbu	a5,0(a5)
   131c0:	01c61713          	slli	a4,a2,0x1c
   131c4:	0046d693          	srli	a3,a3,0x4
   131c8:	00d766b3          	or	a3,a4,a3
   131cc:	00465613          	srli	a2,a2,0x4
   131d0:	fef88fa3          	sb	a5,-1(a7)
   131d4:	00c6e7b3          	or	a5,a3,a2
   131d8:	fff88893          	addi	a7,a7,-1
   131dc:	fc079ce3          	bnez	a5,131b4 <_vfprintf_r+0x17fc>
   131e0:	1a010793          	addi	a5,sp,416
   131e4:	41178d33          	sub	s10,a5,a7
   131e8:	000c8c13          	mv	s8,s9
   131ec:	01acd463          	bge	s9,s10,131f4 <_vfprintf_r+0x183c>
   131f0:	000d0c13          	mv	s8,s10
   131f4:	00012e23          	sw	zero,28(sp)
   131f8:	02012423          	sw	zero,40(sp)
   131fc:	02012223          	sw	zero,36(sp)
   13200:	00000993          	li	s3,0
   13204:	00000813          	li	a6,0
   13208:	00059463          	bnez	a1,13210 <_vfprintf_r+0x1858>
   1320c:	9d5fe06f          	j	11be0 <_vfprintf_r+0x228>
   13210:	0dc12603          	lw	a2,220(sp)
   13214:	0d812f83          	lw	t6,216(sp)
   13218:	08437f13          	andi	t5,t1,132
   1321c:	002c0c13          	addi	s8,s8,2
   13220:	00060513          	mv	a0,a2
   13224:	000f8593          	mv	a1,t6
   13228:	400f0e63          	beqz	t5,13644 <_vfprintf_r+0x1c8c>
   1322c:	00200713          	li	a4,2
   13230:	00080463          	beqz	a6,13238 <_vfprintf_r+0x1880>
   13234:	9cdfe06f          	j	11c00 <_vfprintf_r+0x248>
   13238:	9fdfe06f          	j	11c34 <_vfprintf_r+0x27c>
   1323c:	00078c93          	mv	s9,a5
   13240:	a19046e3          	bgtz	s9,12c4c <_vfprintf_r+0x1294>
   13244:	a35ff06f          	j	12c78 <_vfprintf_r+0x12c0>
   13248:	00040e13          	mv	t3,s0
   1324c:	000c0313          	mv	t1,s8
   13250:	00098413          	mv	s0,s3
   13254:	000c8c13          	mv	s8,s9
   13258:	000a0713          	mv	a4,s4
   1325c:	00068c93          	mv	s9,a3
   13260:	008c8cb3          	add	s9,s9,s0
   13264:	001d0d13          	addi	s10,s10,1
   13268:	0d912e23          	sw	s9,220(sp)
   1326c:	0da12c23          	sw	s10,216(sp)
   13270:	00eda023          	sw	a4,0(s11)
   13274:	008da223          	sw	s0,4(s11)
   13278:	00700793          	li	a5,7
   1327c:	85a7d4e3          	bge	a5,s10,12ac4 <_vfprintf_r+0x110c>
   13280:	01012583          	lw	a1,16(sp)
   13284:	00c12503          	lw	a0,12(sp)
   13288:	0d410613          	addi	a2,sp,212
   1328c:	02612423          	sw	t1,40(sp)
   13290:	03c12223          	sw	t3,36(sp)
   13294:	261010ef          	jal	14cf4 <__sprint_r>
   13298:	ee051263          	bnez	a0,1297c <_vfprintf_r+0xfc4>
   1329c:	0dc12c83          	lw	s9,220(sp)
   132a0:	0d812d03          	lw	s10,216(sp)
   132a4:	02412e03          	lw	t3,36(sp)
   132a8:	02812303          	lw	t1,40(sp)
   132ac:	000a8d93          	mv	s11,s5
   132b0:	819ff06f          	j	12ac8 <_vfprintf_r+0x1110>
   132b4:	fff00c93          	li	s9,-1
   132b8:	00068993          	mv	s3,a3
   132bc:	89dfe06f          	j	11b58 <_vfprintf_r+0x1a0>
   132c0:	00022537          	lui	a0,0x22
   132c4:	00098e13          	mv	t3,s3
   132c8:	000a0313          	mv	t1,s4
   132cc:	45c50513          	addi	a0,a0,1116 # 2245c <__clzsi2+0xbc>
   132d0:	02037793          	andi	a5,t1,32
   132d4:	3c078e63          	beqz	a5,136b0 <_vfprintf_r+0x1cf8>
   132d8:	01812783          	lw	a5,24(sp)
   132dc:	00778793          	addi	a5,a5,7
   132e0:	ff87f793          	andi	a5,a5,-8
   132e4:	0007a683          	lw	a3,0(a5)
   132e8:	0047a603          	lw	a2,4(a5)
   132ec:	00878713          	addi	a4,a5,8
   132f0:	00e12c23          	sw	a4,24(sp)
   132f4:	00137793          	andi	a5,t1,1
   132f8:	36078863          	beqz	a5,13668 <_vfprintf_r+0x1cb0>
   132fc:	00c6e7b3          	or	a5,a3,a2
   13300:	54078e63          	beqz	a5,1385c <_vfprintf_r+0x1ea4>
   13304:	03000793          	li	a5,48
   13308:	0bb10ca3          	sb	s11,185(sp)
   1330c:	0a010ba3          	sb	zero,183(sp)
   13310:	0af10c23          	sb	a5,184(sp)
   13314:	440cca63          	bltz	s9,13768 <_vfprintf_r+0x1db0>
   13318:	b7f37313          	andi	t1,t1,-1153
   1331c:	00236313          	ori	t1,t1,2
   13320:	00f6f793          	andi	a5,a3,15
   13324:	00f507b3          	add	a5,a0,a5
   13328:	0007c783          	lbu	a5,0(a5)
   1332c:	00237593          	andi	a1,t1,2
   13330:	01c61713          	slli	a4,a2,0x1c
   13334:	0046d693          	srli	a3,a3,0x4
   13338:	00d766b3          	or	a3,a4,a3
   1333c:	00465613          	srli	a2,a2,0x4
   13340:	18f10fa3          	sb	a5,415(sp)
   13344:	00c6e7b3          	or	a5,a3,a2
   13348:	e60794e3          	bnez	a5,131b0 <_vfprintf_r+0x17f8>
   1334c:	19f10893          	addi	a7,sp,415
   13350:	e91ff06f          	j	131e0 <_vfprintf_r+0x1828>
   13354:	0019cd83          	lbu	s11,1(s3)
   13358:	020a6a13          	ori	s4,s4,32
   1335c:	00198993          	addi	s3,s3,1
   13360:	ff4fe06f          	j	11b54 <_vfprintf_r+0x19c>
   13364:	0019cd83          	lbu	s11,1(s3)
   13368:	200a6a13          	ori	s4,s4,512
   1336c:	00198993          	addi	s3,s3,1
   13370:	fe4fe06f          	j	11b54 <_vfprintf_r+0x19c>
   13374:	00022537          	lui	a0,0x22
   13378:	00098e13          	mv	t3,s3
   1337c:	000a0313          	mv	t1,s4
   13380:	44850513          	addi	a0,a0,1096 # 22448 <__clzsi2+0xa8>
   13384:	f4dff06f          	j	132d0 <_vfprintf_r+0x1918>
   13388:	01012583          	lw	a1,16(sp)
   1338c:	00c12503          	lw	a0,12(sp)
   13390:	0d410613          	addi	a2,sp,212
   13394:	02612423          	sw	t1,40(sp)
   13398:	03c12223          	sw	t3,36(sp)
   1339c:	159010ef          	jal	14cf4 <__sprint_r>
   133a0:	dc051e63          	bnez	a0,1297c <_vfprintf_r+0xfc4>
   133a4:	0dc12603          	lw	a2,220(sp)
   133a8:	02812303          	lw	t1,40(sp)
   133ac:	02412e03          	lw	t3,36(sp)
   133b0:	000a8413          	mv	s0,s5
   133b4:	ec1fe06f          	j	12274 <_vfprintf_r+0x8bc>
   133b8:	00600793          	li	a5,6
   133bc:	000c8c13          	mv	s8,s9
   133c0:	2797ece3          	bltu	a5,s9,13e38 <_vfprintf_r+0x2480>
   133c4:	000227b7          	lui	a5,0x22
   133c8:	01312c23          	sw	s3,24(sp)
   133cc:	47078893          	addi	a7,a5,1136 # 22470 <__clzsi2+0xd0>
   133d0:	00012e23          	sw	zero,28(sp)
   133d4:	000c0d13          	mv	s10,s8
   133d8:	00000c93          	li	s9,0
   133dc:	02012423          	sw	zero,40(sp)
   133e0:	02012223          	sw	zero,36(sp)
   133e4:	00000993          	li	s3,0
   133e8:	ff8fe06f          	j	11be0 <_vfprintf_r+0x228>
   133ec:	00022737          	lui	a4,0x22
   133f0:	01000d93          	li	s11,16
   133f4:	0d812583          	lw	a1,216(sp)
   133f8:	79870713          	addi	a4,a4,1944 # 22798 <zeroes.0>
   133fc:	699dde63          	bge	s11,s9,13a98 <_vfprintf_r+0x20e0>
   13400:	00040793          	mv	a5,s0
   13404:	000c8a13          	mv	s4,s9
   13408:	000d8e93          	mv	t4,s11
   1340c:	00700d13          	li	s10,7
   13410:	000e0b13          	mv	s6,t3
   13414:	02612c23          	sw	t1,56(sp)
   13418:	00088c93          	mv	s9,a7
   1341c:	00070413          	mv	s0,a4
   13420:	00c0006f          	j	1342c <_vfprintf_r+0x1a74>
   13424:	ff0a0a13          	addi	s4,s4,-16
   13428:	654edc63          	bge	t4,s4,13a80 <_vfprintf_r+0x20c8>
   1342c:	01060613          	addi	a2,a2,16
   13430:	00158593          	addi	a1,a1,1
   13434:	0087a023          	sw	s0,0(a5)
   13438:	01b7a223          	sw	s11,4(a5)
   1343c:	0cc12e23          	sw	a2,220(sp)
   13440:	0cb12c23          	sw	a1,216(sp)
   13444:	00878793          	addi	a5,a5,8
   13448:	fcbd5ee3          	bge	s10,a1,13424 <_vfprintf_r+0x1a6c>
   1344c:	01012583          	lw	a1,16(sp)
   13450:	00c12503          	lw	a0,12(sp)
   13454:	0d410613          	addi	a2,sp,212
   13458:	09d010ef          	jal	14cf4 <__sprint_r>
   1345c:	d2051063          	bnez	a0,1297c <_vfprintf_r+0xfc4>
   13460:	0dc12603          	lw	a2,220(sp)
   13464:	0d812583          	lw	a1,216(sp)
   13468:	000a8793          	mv	a5,s5
   1346c:	01000e93          	li	t4,16
   13470:	fb5ff06f          	j	13424 <_vfprintf_r+0x1a6c>
   13474:	00088513          	mv	a0,a7
   13478:	01c12e23          	sw	t3,28(sp)
   1347c:	01112c23          	sw	a7,24(sp)
   13480:	03412223          	sw	s4,36(sp)
   13484:	08d020ef          	jal	15d10 <strlen>
   13488:	0b714703          	lbu	a4,183(sp)
   1348c:	fff54693          	not	a3,a0
   13490:	41f6d693          	srai	a3,a3,0x1f
   13494:	01812883          	lw	a7,24(sp)
   13498:	01c12e03          	lw	t3,28(sp)
   1349c:	02412303          	lw	t1,36(sp)
   134a0:	00050d13          	mv	s10,a0
   134a4:	00d57c33          	and	s8,a0,a3
   134a8:	00071463          	bnez	a4,134b0 <_vfprintf_r+0x1af8>
   134ac:	badfe06f          	j	12058 <_vfprintf_r+0x6a0>
   134b0:	001c0c13          	addi	s8,s8,1
   134b4:	ba5fe06f          	j	12058 <_vfprintf_r+0x6a0>
   134b8:	00000c13          	li	s8,0
   134bc:	1a010893          	addi	a7,sp,416
   134c0:	00012e23          	sw	zero,28(sp)
   134c4:	02012423          	sw	zero,40(sp)
   134c8:	02012223          	sw	zero,36(sp)
   134cc:	00000993          	li	s3,0
   134d0:	f10fe06f          	j	11be0 <_vfprintf_r+0x228>
   134d4:	07800793          	li	a5,120
   134d8:	03000713          	li	a4,48
   134dc:	0ae10c23          	sb	a4,184(sp)
   134e0:	0af10ca3          	sb	a5,185(sp)
   134e4:	06300713          	li	a4,99
   134e8:	00012e23          	sw	zero,28(sp)
   134ec:	00236313          	ori	t1,t1,2
   134f0:	13c10893          	addi	a7,sp,316
   134f4:	01974463          	blt	a4,s9,134fc <_vfprintf_r+0x1b44>
   134f8:	9b9fe06f          	j	11eb0 <_vfprintf_r+0x4f8>
   134fc:	00c12503          	lw	a0,12(sp)
   13500:	001c8593          	addi	a1,s9,1
   13504:	02612023          	sw	t1,32(sp)
   13508:	01c12e23          	sw	t3,28(sp)
   1350c:	c9dfd0ef          	jal	111a8 <_malloc_r>
   13510:	01c12e03          	lw	t3,28(sp)
   13514:	02012303          	lw	t1,32(sp)
   13518:	00050893          	mv	a7,a0
   1351c:	00051463          	bnez	a0,13524 <_vfprintf_r+0x1b6c>
   13520:	6900106f          	j	14bb0 <_vfprintf_r+0x31f8>
   13524:	00a12e23          	sw	a0,28(sp)
   13528:	989fe06f          	j	11eb0 <_vfprintf_r+0x4f8>
   1352c:	00c12503          	lw	a0,12(sp)
   13530:	0a010d13          	addi	s10,sp,160
   13534:	0bc10713          	addi	a4,sp,188
   13538:	000d0593          	mv	a1,s10
   1353c:	0cc10813          	addi	a6,sp,204
   13540:	0c010793          	addi	a5,sp,192
   13544:	000c8693          	mv	a3,s9
   13548:	00200613          	li	a2,2
   1354c:	04612623          	sw	t1,76(sp)
   13550:	05c12423          	sw	t3,72(sp)
   13554:	0a512023          	sw	t0,160(sp)
   13558:	04512223          	sw	t0,68(sp)
   1355c:	0bf12223          	sw	t6,164(sp)
   13560:	03f12423          	sw	t6,40(sp)
   13564:	0be12423          	sw	t5,168(sp)
   13568:	03e12223          	sw	t5,36(sp)
   1356c:	0bd12623          	sw	t4,172(sp)
   13570:	03d12023          	sw	t4,32(sp)
   13574:	245020ef          	jal	15fb8 <_ldtoa_r>
   13578:	04c12303          	lw	t1,76(sp)
   1357c:	02012e83          	lw	t4,32(sp)
   13580:	02412f03          	lw	t5,36(sp)
   13584:	00137713          	andi	a4,t1,1
   13588:	02812f83          	lw	t6,40(sp)
   1358c:	04412283          	lw	t0,68(sp)
   13590:	04812e03          	lw	t3,72(sp)
   13594:	00050893          	mv	a7,a0
   13598:	1e071ee3          	bnez	a4,13f94 <_vfprintf_r+0x25dc>
   1359c:	0cc12783          	lw	a5,204(sp)
   135a0:	0bc12983          	lw	s3,188(sp)
   135a4:	ffd00713          	li	a4,-3
   135a8:	40a787b3          	sub	a5,a5,a0
   135ac:	02f12023          	sw	a5,32(sp)
   135b0:	00e9d463          	bge	s3,a4,135b8 <_vfprintf_r+0x1c00>
   135b4:	1a00106f          	j	14754 <_vfprintf_r+0x2d9c>
   135b8:	013cd463          	bge	s9,s3,135c0 <_vfprintf_r+0x1c08>
   135bc:	0d40106f          	j	14690 <_vfprintf_r+0x2cd8>
   135c0:	00f9d463          	bge	s3,a5,135c8 <_vfprintf_r+0x1c10>
   135c4:	2e00106f          	j	148a4 <_vfprintf_r+0x2eec>
   135c8:	00098d13          	mv	s10,s3
   135cc:	40037313          	andi	t1,t1,1024
   135d0:	00030663          	beqz	t1,135dc <_vfprintf_r+0x1c24>
   135d4:	01305463          	blez	s3,135dc <_vfprintf_r+0x1c24>
   135d8:	44c0106f          	j	14a24 <_vfprintf_r+0x306c>
   135dc:	fffd4693          	not	a3,s10
   135e0:	41f6d693          	srai	a3,a3,0x1f
   135e4:	00dd7c33          	and	s8,s10,a3
   135e8:	06700d93          	li	s11,103
   135ec:	000a0313          	mv	t1,s4
   135f0:	02012423          	sw	zero,40(sp)
   135f4:	02012223          	sw	zero,36(sp)
   135f8:	03812783          	lw	a5,56(sp)
   135fc:	00237593          	andi	a1,t1,2
   13600:	00079463          	bnez	a5,13608 <_vfprintf_r+0x1c50>
   13604:	0140106f          	j	14618 <_vfprintf_r+0x2c60>
   13608:	02d00813          	li	a6,45
   1360c:	0b010ba3          	sb	a6,183(sp)
   13610:	001c0c13          	addi	s8,s8,1
   13614:	00000c93          	li	s9,0
   13618:	bf1ff06f          	j	13208 <_vfprintf_r+0x1850>
   1361c:	00070313          	mv	t1,a4
   13620:	00f12c23          	sw	a5,24(sp)
   13624:	00000993          	li	s3,0
   13628:	02012223          	sw	zero,36(sp)
   1362c:	00000d13          	li	s10,0
   13630:	00012e23          	sw	zero,28(sp)
   13634:	1a010893          	addi	a7,sp,416
   13638:	07800d93          	li	s11,120
   1363c:	00000813          	li	a6,0
   13640:	00200c13          	li	s8,2
   13644:	418b8733          	sub	a4,s7,s8
   13648:	00e04c63          	bgtz	a4,13660 <_vfprintf_r+0x1ca8>
   1364c:	00000f13          	li	t5,0
   13650:	00081463          	bnez	a6,13658 <_vfprintf_r+0x1ca0>
   13654:	de0fe06f          	j	11c34 <_vfprintf_r+0x27c>
   13658:	00200713          	li	a4,2
   1365c:	da4fe06f          	j	11c00 <_vfprintf_r+0x248>
   13660:	00200f13          	li	t5,2
   13664:	fbcff06f          	j	12e20 <_vfprintf_r+0x1468>
   13668:	0a010ba3          	sb	zero,183(sp)
   1366c:	100cc063          	bltz	s9,1376c <_vfprintf_r+0x1db4>
   13670:	00c6e7b3          	or	a5,a3,a2
   13674:	b7f37313          	andi	t1,t1,-1153
   13678:	ca0794e3          	bnez	a5,13320 <_vfprintf_r+0x1968>
   1367c:	000c9463          	bnez	s9,13684 <_vfprintf_r+0x1ccc>
   13680:	e6dfe06f          	j	124ec <_vfprintf_r+0xb34>
   13684:	00054783          	lbu	a5,0(a0)
   13688:	000c8c13          	mv	s8,s9
   1368c:	18f10fa3          	sb	a5,415(sp)
   13690:	099052e3          	blez	s9,13f14 <_vfprintf_r+0x255c>
   13694:	00012e23          	sw	zero,28(sp)
   13698:	00100d13          	li	s10,1
   1369c:	02012423          	sw	zero,40(sp)
   136a0:	02012223          	sw	zero,36(sp)
   136a4:	00000993          	li	s3,0
   136a8:	19f10893          	addi	a7,sp,415
   136ac:	d34fe06f          	j	11be0 <_vfprintf_r+0x228>
   136b0:	01812703          	lw	a4,24(sp)
   136b4:	01037793          	andi	a5,t1,16
   136b8:	00072683          	lw	a3,0(a4)
   136bc:	00470713          	addi	a4,a4,4
   136c0:	00e12c23          	sw	a4,24(sp)
   136c4:	08079e63          	bnez	a5,13760 <_vfprintf_r+0x1da8>
   136c8:	04037793          	andi	a5,t1,64
   136cc:	08078663          	beqz	a5,13758 <_vfprintf_r+0x1da0>
   136d0:	01069693          	slli	a3,a3,0x10
   136d4:	0106d693          	srli	a3,a3,0x10
   136d8:	00000613          	li	a2,0
   136dc:	c19ff06f          	j	132f4 <_vfprintf_r+0x193c>
   136e0:	01012583          	lw	a1,16(sp)
   136e4:	00c12503          	lw	a0,12(sp)
   136e8:	0d410613          	addi	a2,sp,212
   136ec:	03112c23          	sw	a7,56(sp)
   136f0:	02612423          	sw	t1,40(sp)
   136f4:	03c12223          	sw	t3,36(sp)
   136f8:	5fc010ef          	jal	14cf4 <__sprint_r>
   136fc:	a8051063          	bnez	a0,1297c <_vfprintf_r+0xfc4>
   13700:	0dc12c83          	lw	s9,220(sp)
   13704:	0d812d03          	lw	s10,216(sp)
   13708:	03812883          	lw	a7,56(sp)
   1370c:	02812303          	lw	t1,40(sp)
   13710:	02412e03          	lw	t3,36(sp)
   13714:	000a8d93          	mv	s11,s5
   13718:	afcff06f          	j	12a14 <_vfprintf_r+0x105c>
   1371c:	01012583          	lw	a1,16(sp)
   13720:	00c12503          	lw	a0,12(sp)
   13724:	0d410613          	addi	a2,sp,212
   13728:	03112c23          	sw	a7,56(sp)
   1372c:	02612423          	sw	t1,40(sp)
   13730:	03c12223          	sw	t3,36(sp)
   13734:	5c0010ef          	jal	14cf4 <__sprint_r>
   13738:	a4051263          	bnez	a0,1297c <_vfprintf_r+0xfc4>
   1373c:	0dc12c83          	lw	s9,220(sp)
   13740:	0d812d03          	lw	s10,216(sp)
   13744:	03812883          	lw	a7,56(sp)
   13748:	02812303          	lw	t1,40(sp)
   1374c:	02412e03          	lw	t3,36(sp)
   13750:	000a8d93          	mv	s11,s5
   13754:	aecff06f          	j	12a40 <_vfprintf_r+0x1088>
   13758:	20037793          	andi	a5,t1,512
   1375c:	76079863          	bnez	a5,13ecc <_vfprintf_r+0x2514>
   13760:	00000613          	li	a2,0
   13764:	b91ff06f          	j	132f4 <_vfprintf_r+0x193c>
   13768:	00236313          	ori	t1,t1,2
   1376c:	00f6f793          	andi	a5,a3,15
   13770:	00f507b3          	add	a5,a0,a5
   13774:	00237593          	andi	a1,t1,2
   13778:	0007c783          	lbu	a5,0(a5)
   1377c:	bff37313          	andi	t1,t1,-1025
   13780:	bb1ff06f          	j	13330 <_vfprintf_r+0x1978>
   13784:	0d812703          	lw	a4,216(sp)
   13788:	000225b7          	lui	a1,0x22
   1378c:	47858593          	addi	a1,a1,1144 # 22478 <__clzsi2+0xd8>
   13790:	00160613          	addi	a2,a2,1
   13794:	00170713          	addi	a4,a4,1
   13798:	00100813          	li	a6,1
   1379c:	00b42023          	sw	a1,0(s0)
   137a0:	01042223          	sw	a6,4(s0)
   137a4:	0cc12e23          	sw	a2,220(sp)
   137a8:	0ce12c23          	sw	a4,216(sp)
   137ac:	00700593          	li	a1,7
   137b0:	00840413          	addi	s0,s0,8
   137b4:	5ee5ca63          	blt	a1,a4,13da8 <_vfprintf_r+0x23f0>
   137b8:	00050463          	beqz	a0,137c0 <_vfprintf_r+0x1e08>
   137bc:	f94fe06f          	j	11f50 <_vfprintf_r+0x598>
   137c0:	02012783          	lw	a5,32(sp)
   137c4:	00137713          	andi	a4,t1,1
   137c8:	00f76733          	or	a4,a4,a5
   137cc:	00071463          	bnez	a4,137d4 <_vfprintf_r+0x1e1c>
   137d0:	cd0fe06f          	j	11ca0 <_vfprintf_r+0x2e8>
   137d4:	0d812583          	lw	a1,216(sp)
   137d8:	02c12783          	lw	a5,44(sp)
   137dc:	03412703          	lw	a4,52(sp)
   137e0:	00158593          	addi	a1,a1,1
   137e4:	00c78633          	add	a2,a5,a2
   137e8:	00e42023          	sw	a4,0(s0)
   137ec:	0cc12e23          	sw	a2,220(sp)
   137f0:	00f42223          	sw	a5,4(s0)
   137f4:	0cb12c23          	sw	a1,216(sp)
   137f8:	00700713          	li	a4,7
   137fc:	74b74a63          	blt	a4,a1,13f50 <_vfprintf_r+0x2598>
   13800:	00840413          	addi	s0,s0,8
   13804:	f88fe06f          	j	11f8c <_vfprintf_r+0x5d4>
   13808:	01012583          	lw	a1,16(sp)
   1380c:	00c12503          	lw	a0,12(sp)
   13810:	0d410613          	addi	a2,sp,212
   13814:	05112623          	sw	a7,76(sp)
   13818:	04612423          	sw	t1,72(sp)
   1381c:	05e12223          	sw	t5,68(sp)
   13820:	03c12c23          	sw	t3,56(sp)
   13824:	4d0010ef          	jal	14cf4 <__sprint_r>
   13828:	94051a63          	bnez	a0,1297c <_vfprintf_r+0xfc4>
   1382c:	0b714703          	lbu	a4,183(sp)
   13830:	0dc12603          	lw	a2,220(sp)
   13834:	03812e03          	lw	t3,56(sp)
   13838:	04412f03          	lw	t5,68(sp)
   1383c:	04812303          	lw	t1,72(sp)
   13840:	04c12883          	lw	a7,76(sp)
   13844:	16070463          	beqz	a4,139ac <_vfprintf_r+0x1ff4>
   13848:	000f0713          	mv	a4,t5
   1384c:	0d812f83          	lw	t6,216(sp)
   13850:	00000f13          	li	t5,0
   13854:	000a8413          	mv	s0,s5
   13858:	ba8fe06f          	j	11c00 <_vfprintf_r+0x248>
   1385c:	0a010ba3          	sb	zero,183(sp)
   13860:	280ccc63          	bltz	s9,13af8 <_vfprintf_r+0x2140>
   13864:	b7f37313          	andi	t1,t1,-1153
   13868:	e15ff06f          	j	1367c <_vfprintf_r+0x1cc4>
   1386c:	00c12503          	lw	a0,12(sp)
   13870:	cc9fc0ef          	jal	10538 <__sinit>
   13874:	9a4fe06f          	j	11a18 <_vfprintf_r+0x60>
   13878:	01012583          	lw	a1,16(sp)
   1387c:	00c12503          	lw	a0,12(sp)
   13880:	0d410613          	addi	a2,sp,212
   13884:	02612423          	sw	t1,40(sp)
   13888:	03c12223          	sw	t3,36(sp)
   1388c:	468010ef          	jal	14cf4 <__sprint_r>
   13890:	8e051663          	bnez	a0,1297c <_vfprintf_r+0xfc4>
   13894:	0dc12603          	lw	a2,220(sp)
   13898:	02812303          	lw	t1,40(sp)
   1389c:	02412e03          	lw	t3,36(sp)
   138a0:	000a8413          	mv	s0,s5
   138a4:	991fe06f          	j	12234 <_vfprintf_r+0x87c>
   138a8:	000b0993          	mv	s3,s6
   138ac:	8d4ff06f          	j	12980 <_vfprintf_r+0xfc8>
   138b0:	00040e13          	mv	t3,s0
   138b4:	000c0313          	mv	t1,s8
   138b8:	00068413          	mv	s0,a3
   138bc:	000c8c13          	mv	s8,s9
   138c0:	000a0713          	mv	a4,s4
   138c4:	00098c93          	mv	s9,s3
   138c8:	01960633          	add	a2,a2,s9
   138cc:	00178793          	addi	a5,a5,1
   138d0:	0cc12e23          	sw	a2,220(sp)
   138d4:	0cf12c23          	sw	a5,216(sp)
   138d8:	00e42023          	sw	a4,0(s0)
   138dc:	01942223          	sw	s9,4(s0)
   138e0:	00700713          	li	a4,7
   138e4:	00f74463          	blt	a4,a5,138ec <_vfprintf_r+0x1f34>
   138e8:	bb4fe06f          	j	11c9c <_vfprintf_r+0x2e4>
   138ec:	ec4fe06f          	j	11fb0 <_vfprintf_r+0x5f8>
   138f0:	0e012603          	lw	a2,224(sp)
   138f4:	0e412683          	lw	a3,228(sp)
   138f8:	0e812703          	lw	a4,232(sp)
   138fc:	0ec12783          	lw	a5,236(sp)
   13900:	f7f37313          	andi	t1,t1,-129
   13904:	09010593          	addi	a1,sp,144
   13908:	0a010513          	addi	a0,sp,160
   1390c:	03c12223          	sw	t3,36(sp)
   13910:	00612e23          	sw	t1,28(sp)
   13914:	08012823          	sw	zero,144(sp)
   13918:	08012a23          	sw	zero,148(sp)
   1391c:	08012c23          	sw	zero,152(sp)
   13920:	08012e23          	sw	zero,156(sp)
   13924:	0ac12023          	sw	a2,160(sp)
   13928:	0ad12223          	sw	a3,164(sp)
   1392c:	0ae12423          	sw	a4,168(sp)
   13930:	0af12623          	sw	a5,172(sp)
   13934:	4110b0ef          	jal	1f544 <__letf2>
   13938:	01c12303          	lw	t1,28(sp)
   1393c:	02412e03          	lw	t3,36(sp)
   13940:	58054ee3          	bltz	a0,146dc <_vfprintf_r+0x2d24>
   13944:	04700793          	li	a5,71
   13948:	0b714703          	lbu	a4,183(sp)
   1394c:	77b7d063          	bge	a5,s11,140ac <_vfprintf_r+0x26f4>
   13950:	000227b7          	lui	a5,0x22
   13954:	43c78893          	addi	a7,a5,1084 # 2243c <__clzsi2+0x9c>
   13958:	10071463          	bnez	a4,13a60 <_vfprintf_r+0x20a8>
   1395c:	00300d13          	li	s10,3
   13960:	000d0c13          	mv	s8,s10
   13964:	ef8fe06f          	j	1205c <_vfprintf_r+0x6a4>
   13968:	01812783          	lw	a5,24(sp)
   1396c:	01412683          	lw	a3,20(sp)
   13970:	0007a783          	lw	a5,0(a5)
   13974:	00d7a023          	sw	a3,0(a5)
   13978:	00e12c23          	sw	a4,24(sp)
   1397c:	d0dfe06f          	j	12688 <_vfprintf_r+0xcd0>
   13980:	00022537          	lui	a0,0x22
   13984:	44850813          	addi	a6,a0,1096 # 22448 <__clzsi2+0xa8>
   13988:	00f6f593          	andi	a1,a3,15
   1398c:	010585b3          	add	a1,a1,a6
   13990:	00f12c23          	sw	a5,24(sp)
   13994:	00070313          	mv	t1,a4
   13998:	0005c783          	lbu	a5,0(a1)
   1399c:	44850513          	addi	a0,a0,1096
   139a0:	00200593          	li	a1,2
   139a4:	07800d93          	li	s11,120
   139a8:	989ff06f          	j	13330 <_vfprintf_r+0x1978>
   139ac:	500f0063          	beqz	t5,13eac <_vfprintf_r+0x24f4>
   139b0:	0d812f83          	lw	t6,216(sp)
   139b4:	00000f13          	li	t5,0
   139b8:	000a8413          	mv	s0,s5
   139bc:	a78fe06f          	j	11c34 <_vfprintf_r+0x27c>
   139c0:	200a7713          	andi	a4,s4,512
   139c4:	50070a63          	beqz	a4,13ed8 <_vfprintf_r+0x2520>
   139c8:	01881d13          	slli	s10,a6,0x18
   139cc:	418d5d13          	srai	s10,s10,0x18
   139d0:	41fd5713          	srai	a4,s10,0x1f
   139d4:	00f12c23          	sw	a5,24(sp)
   139d8:	00070693          	mv	a3,a4
   139dc:	975fe06f          	j	12350 <_vfprintf_r+0x998>
   139e0:	200a7713          	andi	a4,s4,512
   139e4:	0a010ba3          	sb	zero,183(sp)
   139e8:	50071a63          	bnez	a4,13efc <_vfprintf_r+0x2544>
   139ec:	00068d13          	mv	s10,a3
   139f0:	00000713          	li	a4,0
   139f4:	e60cc663          	bltz	s9,13060 <_vfprintf_r+0x16a8>
   139f8:	f7fa7313          	andi	t1,s4,-129
   139fc:	e6069263          	bnez	a3,13060 <_vfprintf_r+0x16a8>
   13a00:	00f12c23          	sw	a5,24(sp)
   13a04:	000c9463          	bnez	s9,13a0c <_vfprintf_r+0x2054>
   13a08:	ae5fe06f          	j	124ec <_vfprintf_r+0xb34>
   13a0c:	00000d13          	li	s10,0
   13a10:	9edfe06f          	j	123fc <_vfprintf_r+0xa44>
   13a14:	200a7693          	andi	a3,s4,512
   13a18:	4c068a63          	beqz	a3,13eec <_vfprintf_r+0x2534>
   13a1c:	0ff77713          	zext.b	a4,a4
   13a20:	00f12c23          	sw	a5,24(sp)
   13a24:	000a0e93          	mv	t4,s4
   13a28:	00000593          	li	a1,0
   13a2c:	b19fe06f          	j	12544 <_vfprintf_r+0xb8c>
   13a30:	0ec12d03          	lw	s10,236(sp)
   13a34:	800007b7          	lui	a5,0x80000
   13a38:	f7f37313          	andi	t1,t1,-129
   13a3c:	00fd79b3          	and	s3,s10,a5
   13a40:	4c098e63          	beqz	s3,13f1c <_vfprintf_r+0x2564>
   13a44:	02d00793          	li	a5,45
   13a48:	0af10ba3          	sb	a5,183(sp)
   13a4c:	04700793          	li	a5,71
   13a50:	01b7c463          	blt	a5,s11,13a58 <_vfprintf_r+0x20a0>
   13a54:	7b10006f          	j	14a04 <_vfprintf_r+0x304c>
   13a58:	000227b7          	lui	a5,0x22
   13a5c:	44478893          	addi	a7,a5,1092 # 22444 <__clzsi2+0xa4>
   13a60:	00012e23          	sw	zero,28(sp)
   13a64:	00300d13          	li	s10,3
   13a68:	00000c93          	li	s9,0
   13a6c:	02012423          	sw	zero,40(sp)
   13a70:	02012223          	sw	zero,36(sp)
   13a74:	00000993          	li	s3,0
   13a78:	00400c13          	li	s8,4
   13a7c:	964fe06f          	j	11be0 <_vfprintf_r+0x228>
   13a80:	03812303          	lw	t1,56(sp)
   13a84:	000c8893          	mv	a7,s9
   13a88:	00040713          	mv	a4,s0
   13a8c:	000b0e13          	mv	t3,s6
   13a90:	000a0c93          	mv	s9,s4
   13a94:	00078413          	mv	s0,a5
   13a98:	01960633          	add	a2,a2,s9
   13a9c:	00158593          	addi	a1,a1,1
   13aa0:	00e42023          	sw	a4,0(s0)
   13aa4:	01942223          	sw	s9,4(s0)
   13aa8:	0cc12e23          	sw	a2,220(sp)
   13aac:	0cb12c23          	sw	a1,216(sp)
   13ab0:	00700713          	li	a4,7
   13ab4:	00840413          	addi	s0,s0,8
   13ab8:	9cb75a63          	bge	a4,a1,12c8c <_vfprintf_r+0x12d4>
   13abc:	01012583          	lw	a1,16(sp)
   13ac0:	00c12503          	lw	a0,12(sp)
   13ac4:	0d410613          	addi	a2,sp,212
   13ac8:	05112423          	sw	a7,72(sp)
   13acc:	04612223          	sw	t1,68(sp)
   13ad0:	03c12c23          	sw	t3,56(sp)
   13ad4:	220010ef          	jal	14cf4 <__sprint_r>
   13ad8:	00050463          	beqz	a0,13ae0 <_vfprintf_r+0x2128>
   13adc:	ea1fe06f          	j	1297c <_vfprintf_r+0xfc4>
   13ae0:	0dc12603          	lw	a2,220(sp)
   13ae4:	04812883          	lw	a7,72(sp)
   13ae8:	04412303          	lw	t1,68(sp)
   13aec:	03812e03          	lw	t3,56(sp)
   13af0:	000a8413          	mv	s0,s5
   13af4:	998ff06f          	j	12c8c <_vfprintf_r+0x12d4>
   13af8:	00054783          	lbu	a5,0(a0)
   13afc:	bff37313          	andi	t1,t1,-1025
   13b00:	00000593          	li	a1,0
   13b04:	18f10fa3          	sb	a5,415(sp)
   13b08:	19f10893          	addi	a7,sp,415
   13b0c:	ed4ff06f          	j	131e0 <_vfprintf_r+0x1828>
   13b10:	05012603          	lw	a2,80(sp)
   13b14:	04012583          	lw	a1,64(sp)
   13b18:	00100b93          	li	s7,1
   13b1c:	40ca0433          	sub	s0,s4,a2
   13b20:	00040513          	mv	a0,s0
   13b24:	5c5010ef          	jal	158e8 <strncpy>
   13b28:	03012703          	lw	a4,48(sp)
   13b2c:	000c0513          	mv	a0,s8
   13b30:	000c8593          	mv	a1,s9
   13b34:	00174783          	lbu	a5,1(a4)
   13b38:	00a00613          	li	a2,10
   13b3c:	00000693          	li	a3,0
   13b40:	00f037b3          	snez	a5,a5
   13b44:	00f707b3          	add	a5,a4,a5
   13b48:	02f12823          	sw	a5,48(sp)
   13b4c:	48d080ef          	jal	1c7d8 <__udivdi3>
   13b50:	00a00613          	li	a2,10
   13b54:	00000693          	li	a3,0
   13b58:	00050c13          	mv	s8,a0
   13b5c:	00058c93          	mv	s9,a1
   13b60:	240090ef          	jal	1cda0 <__umoddi3>
   13b64:	03050793          	addi	a5,a0,48
   13b68:	fff40a13          	addi	s4,s0,-1
   13b6c:	fef40fa3          	sb	a5,-1(s0)
   13b70:	d88ff06f          	j	130f8 <_vfprintf_r+0x1740>
   13b74:	02012783          	lw	a5,32(sp)
   13b78:	00040713          	mv	a4,s0
   13b7c:	02412403          	lw	s0,36(sp)
   13b80:	00f88b33          	add	s6,a7,a5
   13b84:	02812983          	lw	s3,40(sp)
   13b88:	03612223          	sw	s6,36(sp)
   13b8c:	03812423          	sw	s8,40(sp)
   13b90:	03c12c23          	sw	t3,56(sp)
   13b94:	05712223          	sw	s7,68(sp)
   13b98:	04612423          	sw	t1,72(sp)
   13b9c:	05112623          	sw	a7,76(sp)
   13ba0:	000d8c13          	mv	s8,s11
   13ba4:	03012b03          	lw	s6,48(sp)
   13ba8:	05012d83          	lw	s11,80(sp)
   13bac:	00700813          	li	a6,7
   13bb0:	01000c93          	li	s9,16
   13bb4:	00022a37          	lui	s4,0x22
   13bb8:	08805863          	blez	s0,13c48 <_vfprintf_r+0x2290>
   13bbc:	19305663          	blez	s3,13d48 <_vfprintf_r+0x2390>
   13bc0:	fff98993          	addi	s3,s3,-1
   13bc4:	0d812783          	lw	a5,216(sp)
   13bc8:	04012683          	lw	a3,64(sp)
   13bcc:	01b60633          	add	a2,a2,s11
   13bd0:	00178793          	addi	a5,a5,1
   13bd4:	00d72023          	sw	a3,0(a4)
   13bd8:	01b72223          	sw	s11,4(a4)
   13bdc:	0cc12e23          	sw	a2,220(sp)
   13be0:	0cf12c23          	sw	a5,216(sp)
   13be4:	00870713          	addi	a4,a4,8
   13be8:	16f84663          	blt	a6,a5,13d54 <_vfprintf_r+0x239c>
   13bec:	02412783          	lw	a5,36(sp)
   13bf0:	000b4683          	lbu	a3,0(s6)
   13bf4:	41878bb3          	sub	s7,a5,s8
   13bf8:	0176d463          	bge	a3,s7,13c00 <_vfprintf_r+0x2248>
   13bfc:	00068b93          	mv	s7,a3
   13c00:	03705663          	blez	s7,13c2c <_vfprintf_r+0x2274>
   13c04:	0d812683          	lw	a3,216(sp)
   13c08:	01760633          	add	a2,a2,s7
   13c0c:	0cc12e23          	sw	a2,220(sp)
   13c10:	00168693          	addi	a3,a3,1
   13c14:	01872023          	sw	s8,0(a4)
   13c18:	01772223          	sw	s7,4(a4)
   13c1c:	0cd12c23          	sw	a3,216(sp)
   13c20:	14d84e63          	blt	a6,a3,13d7c <_vfprintf_r+0x23c4>
   13c24:	000b4683          	lbu	a3,0(s6)
   13c28:	00870713          	addi	a4,a4,8
   13c2c:	fffbc593          	not	a1,s7
   13c30:	41f5d593          	srai	a1,a1,0x1f
   13c34:	00bbf7b3          	and	a5,s7,a1
   13c38:	40f68d33          	sub	s10,a3,a5
   13c3c:	05a04463          	bgtz	s10,13c84 <_vfprintf_r+0x22cc>
   13c40:	00dc0c33          	add	s8,s8,a3
   13c44:	f6804ce3          	bgtz	s0,13bbc <_vfprintf_r+0x2204>
   13c48:	f7304ce3          	bgtz	s3,13bc0 <_vfprintf_r+0x2208>
   13c4c:	04c12883          	lw	a7,76(sp)
   13c50:	02012783          	lw	a5,32(sp)
   13c54:	000c0d93          	mv	s11,s8
   13c58:	00070413          	mv	s0,a4
   13c5c:	03612823          	sw	s6,48(sp)
   13c60:	00f88733          	add	a4,a7,a5
   13c64:	03812e03          	lw	t3,56(sp)
   13c68:	04412b83          	lw	s7,68(sp)
   13c6c:	04812303          	lw	t1,72(sp)
   13c70:	02812c03          	lw	s8,40(sp)
   13c74:	01b76463          	bltu	a4,s11,13c7c <_vfprintf_r+0x22c4>
   13c78:	820ff06f          	j	12c98 <_vfprintf_r+0x12e0>
   13c7c:	00070d93          	mv	s11,a4
   13c80:	818ff06f          	j	12c98 <_vfprintf_r+0x12e0>
   13c84:	00022f37          	lui	t5,0x22
   13c88:	0d812683          	lw	a3,216(sp)
   13c8c:	798f0b93          	addi	s7,t5,1944 # 22798 <zeroes.0>
   13c90:	09acd663          	bge	s9,s10,13d1c <_vfprintf_r+0x2364>
   13c94:	798a0b93          	addi	s7,s4,1944 # 22798 <zeroes.0>
   13c98:	000b8793          	mv	a5,s7
   13c9c:	00040b93          	mv	s7,s0
   13ca0:	000d0413          	mv	s0,s10
   13ca4:	00098d13          	mv	s10,s3
   13ca8:	00078993          	mv	s3,a5
   13cac:	00c0006f          	j	13cb8 <_vfprintf_r+0x2300>
   13cb0:	ff040413          	addi	s0,s0,-16
   13cb4:	048cda63          	bge	s9,s0,13d08 <_vfprintf_r+0x2350>
   13cb8:	01060613          	addi	a2,a2,16
   13cbc:	00168693          	addi	a3,a3,1
   13cc0:	01372023          	sw	s3,0(a4)
   13cc4:	01972223          	sw	s9,4(a4)
   13cc8:	0cc12e23          	sw	a2,220(sp)
   13ccc:	0cd12c23          	sw	a3,216(sp)
   13cd0:	00870713          	addi	a4,a4,8
   13cd4:	fcd85ee3          	bge	a6,a3,13cb0 <_vfprintf_r+0x22f8>
   13cd8:	01012583          	lw	a1,16(sp)
   13cdc:	00c12503          	lw	a0,12(sp)
   13ce0:	0d410613          	addi	a2,sp,212
   13ce4:	010010ef          	jal	14cf4 <__sprint_r>
   13ce8:	00050463          	beqz	a0,13cf0 <_vfprintf_r+0x2338>
   13cec:	c91fe06f          	j	1297c <_vfprintf_r+0xfc4>
   13cf0:	ff040413          	addi	s0,s0,-16
   13cf4:	0dc12603          	lw	a2,220(sp)
   13cf8:	0d812683          	lw	a3,216(sp)
   13cfc:	000a8713          	mv	a4,s5
   13d00:	00700813          	li	a6,7
   13d04:	fa8ccae3          	blt	s9,s0,13cb8 <_vfprintf_r+0x2300>
   13d08:	00098793          	mv	a5,s3
   13d0c:	000d0993          	mv	s3,s10
   13d10:	00040d13          	mv	s10,s0
   13d14:	000b8413          	mv	s0,s7
   13d18:	00078b93          	mv	s7,a5
   13d1c:	01a60633          	add	a2,a2,s10
   13d20:	00168693          	addi	a3,a3,1
   13d24:	0cc12e23          	sw	a2,220(sp)
   13d28:	0cd12c23          	sw	a3,216(sp)
   13d2c:	01772023          	sw	s7,0(a4)
   13d30:	01a72223          	sw	s10,4(a4)
   13d34:	10d846e3          	blt	a6,a3,14640 <_vfprintf_r+0x2c88>
   13d38:	000b4683          	lbu	a3,0(s6)
   13d3c:	00870713          	addi	a4,a4,8
   13d40:	00dc0c33          	add	s8,s8,a3
   13d44:	f01ff06f          	j	13c44 <_vfprintf_r+0x228c>
   13d48:	fffb0b13          	addi	s6,s6,-1
   13d4c:	fff40413          	addi	s0,s0,-1
   13d50:	e75ff06f          	j	13bc4 <_vfprintf_r+0x220c>
   13d54:	01012583          	lw	a1,16(sp)
   13d58:	00c12503          	lw	a0,12(sp)
   13d5c:	0d410613          	addi	a2,sp,212
   13d60:	795000ef          	jal	14cf4 <__sprint_r>
   13d64:	00050463          	beqz	a0,13d6c <_vfprintf_r+0x23b4>
   13d68:	c15fe06f          	j	1297c <_vfprintf_r+0xfc4>
   13d6c:	0dc12603          	lw	a2,220(sp)
   13d70:	000a8713          	mv	a4,s5
   13d74:	00700813          	li	a6,7
   13d78:	e75ff06f          	j	13bec <_vfprintf_r+0x2234>
   13d7c:	01012583          	lw	a1,16(sp)
   13d80:	00c12503          	lw	a0,12(sp)
   13d84:	0d410613          	addi	a2,sp,212
   13d88:	76d000ef          	jal	14cf4 <__sprint_r>
   13d8c:	00050463          	beqz	a0,13d94 <_vfprintf_r+0x23dc>
   13d90:	bedfe06f          	j	1297c <_vfprintf_r+0xfc4>
   13d94:	000b4683          	lbu	a3,0(s6)
   13d98:	0dc12603          	lw	a2,220(sp)
   13d9c:	000a8713          	mv	a4,s5
   13da0:	00700813          	li	a6,7
   13da4:	e89ff06f          	j	13c2c <_vfprintf_r+0x2274>
   13da8:	01012583          	lw	a1,16(sp)
   13dac:	00c12503          	lw	a0,12(sp)
   13db0:	0d410613          	addi	a2,sp,212
   13db4:	03112c23          	sw	a7,56(sp)
   13db8:	02612423          	sw	t1,40(sp)
   13dbc:	03c12223          	sw	t3,36(sp)
   13dc0:	735000ef          	jal	14cf4 <__sprint_r>
   13dc4:	00050463          	beqz	a0,13dcc <_vfprintf_r+0x2414>
   13dc8:	bb5fe06f          	j	1297c <_vfprintf_r+0xfc4>
   13dcc:	0bc12503          	lw	a0,188(sp)
   13dd0:	0dc12603          	lw	a2,220(sp)
   13dd4:	03812883          	lw	a7,56(sp)
   13dd8:	02812303          	lw	t1,40(sp)
   13ddc:	02412e03          	lw	t3,36(sp)
   13de0:	000a8413          	mv	s0,s5
   13de4:	9d5ff06f          	j	137b8 <_vfprintf_r+0x1e00>
   13de8:	0b714703          	lbu	a4,183(sp)
   13dec:	00000c13          	li	s8,0
   13df0:	00000d13          	li	s10,0
   13df4:	1a010893          	addi	a7,sp,416
   13df8:	e28fe06f          	j	12420 <_vfprintf_r+0xa68>
   13dfc:	01012583          	lw	a1,16(sp)
   13e00:	00c12503          	lw	a0,12(sp)
   13e04:	0d410613          	addi	a2,sp,212
   13e08:	05112423          	sw	a7,72(sp)
   13e0c:	04612223          	sw	t1,68(sp)
   13e10:	03c12c23          	sw	t3,56(sp)
   13e14:	6e1000ef          	jal	14cf4 <__sprint_r>
   13e18:	00050463          	beqz	a0,13e20 <_vfprintf_r+0x2468>
   13e1c:	b61fe06f          	j	1297c <_vfprintf_r+0xfc4>
   13e20:	0dc12603          	lw	a2,220(sp)
   13e24:	04812883          	lw	a7,72(sp)
   13e28:	04412303          	lw	t1,68(sp)
   13e2c:	03812e03          	lw	t3,56(sp)
   13e30:	000a8413          	mv	s0,s5
   13e34:	e45fe06f          	j	12c78 <_vfprintf_r+0x12c0>
   13e38:	00078c13          	mv	s8,a5
   13e3c:	d88ff06f          	j	133c4 <_vfprintf_r+0x1a0c>
   13e40:	0dc12603          	lw	a2,220(sp)
   13e44:	0d812f83          	lw	t6,216(sp)
   13e48:	004a7693          	andi	a3,s4,4
   13e4c:	02d12423          	sw	a3,40(sp)
   13e50:	00060513          	mv	a0,a2
   13e54:	000f8593          	mv	a1,t6
   13e58:	fc068263          	beqz	a3,1361c <_vfprintf_r+0x1c64>
   13e5c:	00f12c23          	sw	a5,24(sp)
   13e60:	00070313          	mv	t1,a4
   13e64:	00000d13          	li	s10,0
   13e68:	02012423          	sw	zero,40(sp)
   13e6c:	02012223          	sw	zero,36(sp)
   13e70:	00000993          	li	s3,0
   13e74:	00012e23          	sw	zero,28(sp)
   13e78:	00200c13          	li	s8,2
   13e7c:	1a010893          	addi	a7,sp,416
   13e80:	07800d93          	li	s11,120
   13e84:	00400f13          	li	t5,4
   13e88:	dadfd06f          	j	11c34 <_vfprintf_r+0x27c>
   13e8c:	00078713          	mv	a4,a5
   13e90:	00f887b3          	add	a5,a7,a5
   13e94:	41b78d33          	sub	s10,a5,s11
   13e98:	41970cb3          	sub	s9,a4,s9
   13e9c:	01acc463          	blt	s9,s10,13ea4 <_vfprintf_r+0x24ec>
   13ea0:	e8dfe06f          	j	12d2c <_vfprintf_r+0x1374>
   13ea4:	000c8d13          	mv	s10,s9
   13ea8:	e85fe06f          	j	12d2c <_vfprintf_r+0x1374>
   13eac:	000a8413          	mv	s0,s5
   13eb0:	db9fd06f          	j	11c68 <_vfprintf_r+0x2b0>
   13eb4:	01812783          	lw	a5,24(sp)
   13eb8:	01412683          	lw	a3,20(sp)
   13ebc:	00e12c23          	sw	a4,24(sp)
   13ec0:	0007a783          	lw	a5,0(a5)
   13ec4:	00d79023          	sh	a3,0(a5)
   13ec8:	fc0fe06f          	j	12688 <_vfprintf_r+0xcd0>
   13ecc:	0ff6f693          	zext.b	a3,a3
   13ed0:	00000613          	li	a2,0
   13ed4:	c20ff06f          	j	132f4 <_vfprintf_r+0x193c>
   13ed8:	41f85713          	srai	a4,a6,0x1f
   13edc:	00080d13          	mv	s10,a6
   13ee0:	00f12c23          	sw	a5,24(sp)
   13ee4:	00070693          	mv	a3,a4
   13ee8:	c68fe06f          	j	12350 <_vfprintf_r+0x998>
   13eec:	00f12c23          	sw	a5,24(sp)
   13ef0:	000a0e93          	mv	t4,s4
   13ef4:	00000593          	li	a1,0
   13ef8:	e4cfe06f          	j	12544 <_vfprintf_r+0xb8c>
   13efc:	0ff6fd13          	zext.b	s10,a3
   13f00:	00000713          	li	a4,0
   13f04:	000cc463          	bltz	s9,13f0c <_vfprintf_r+0x2554>
   13f08:	d84fe06f          	j	1248c <_vfprintf_r+0xad4>
   13f0c:	00f12c23          	sw	a5,24(sp)
   13f10:	954ff06f          	j	13064 <_vfprintf_r+0x16ac>
   13f14:	00100c13          	li	s8,1
   13f18:	f7cff06f          	j	13694 <_vfprintf_r+0x1cdc>
   13f1c:	04700793          	li	a5,71
   13f20:	0b714703          	lbu	a4,183(sp)
   13f24:	2fb7d6e3          	bge	a5,s11,14a10 <_vfprintf_r+0x3058>
   13f28:	000227b7          	lui	a5,0x22
   13f2c:	44478893          	addi	a7,a5,1092 # 22444 <__clzsi2+0xa4>
   13f30:	4a0714e3          	bnez	a4,14bd8 <_vfprintf_r+0x3220>
   13f34:	00300d13          	li	s10,3
   13f38:	000d0c13          	mv	s8,s10
   13f3c:	00000c93          	li	s9,0
   13f40:	02012423          	sw	zero,40(sp)
   13f44:	02012223          	sw	zero,36(sp)
   13f48:	00012e23          	sw	zero,28(sp)
   13f4c:	c95fd06f          	j	11be0 <_vfprintf_r+0x228>
   13f50:	01012583          	lw	a1,16(sp)
   13f54:	00c12503          	lw	a0,12(sp)
   13f58:	0d410613          	addi	a2,sp,212
   13f5c:	03112c23          	sw	a7,56(sp)
   13f60:	02612423          	sw	t1,40(sp)
   13f64:	03c12223          	sw	t3,36(sp)
   13f68:	58d000ef          	jal	14cf4 <__sprint_r>
   13f6c:	00050463          	beqz	a0,13f74 <_vfprintf_r+0x25bc>
   13f70:	a0dfe06f          	j	1297c <_vfprintf_r+0xfc4>
   13f74:	0bc12503          	lw	a0,188(sp)
   13f78:	0dc12603          	lw	a2,220(sp)
   13f7c:	0d812583          	lw	a1,216(sp)
   13f80:	03812883          	lw	a7,56(sp)
   13f84:	02812303          	lw	t1,40(sp)
   13f88:	02412e03          	lw	t3,36(sp)
   13f8c:	000a8413          	mv	s0,s5
   13f90:	ff5fd06f          	j	11f84 <_vfprintf_r+0x5cc>
   13f94:	01950c33          	add	s8,a0,s9
   13f98:	04700693          	li	a3,71
   13f9c:	09010593          	addi	a1,sp,144
   13fa0:	000d0513          	mv	a0,s10
   13fa4:	05112223          	sw	a7,68(sp)
   13fa8:	02d12423          	sw	a3,40(sp)
   13fac:	02612223          	sw	t1,36(sp)
   13fb0:	03c12023          	sw	t3,32(sp)
   13fb4:	0a512023          	sw	t0,160(sp)
   13fb8:	0bf12223          	sw	t6,164(sp)
   13fbc:	0be12423          	sw	t5,168(sp)
   13fc0:	0bd12623          	sw	t4,172(sp)
   13fc4:	08012823          	sw	zero,144(sp)
   13fc8:	08012a23          	sw	zero,148(sp)
   13fcc:	08012c23          	sw	zero,152(sp)
   13fd0:	08012e23          	sw	zero,156(sp)
   13fd4:	3840b0ef          	jal	1f358 <__eqtf2>
   13fd8:	02012e03          	lw	t3,32(sp)
   13fdc:	02412303          	lw	t1,36(sp)
   13fe0:	02812683          	lw	a3,40(sp)
   13fe4:	04412883          	lw	a7,68(sp)
   13fe8:	68050463          	beqz	a0,14670 <_vfprintf_r+0x2cb8>
   13fec:	0cc12783          	lw	a5,204(sp)
   13ff0:	4187f8e3          	bgeu	a5,s8,14c00 <_vfprintf_r+0x3248>
   13ff4:	03000593          	li	a1,48
   13ff8:	00178713          	addi	a4,a5,1
   13ffc:	0ce12623          	sw	a4,204(sp)
   14000:	00b78023          	sb	a1,0(a5)
   14004:	0cc12783          	lw	a5,204(sp)
   14008:	ff87e8e3          	bltu	a5,s8,13ff8 <_vfprintf_r+0x2640>
   1400c:	411787b3          	sub	a5,a5,a7
   14010:	04700713          	li	a4,71
   14014:	02f12023          	sw	a5,32(sp)
   14018:	0bc12983          	lw	s3,188(sp)
   1401c:	66e68463          	beq	a3,a4,14684 <_vfprintf_r+0x2ccc>
   14020:	04600713          	li	a4,70
   14024:	04e684e3          	beq	a3,a4,1486c <_vfprintf_r+0x2eb4>
   14028:	fff98c13          	addi	s8,s3,-1
   1402c:	0db10223          	sb	s11,196(sp)
   14030:	0b812e23          	sw	s8,188(sp)
   14034:	720c4863          	bltz	s8,14764 <_vfprintf_r+0x2dac>
   14038:	02b00693          	li	a3,43
   1403c:	0cd102a3          	sb	a3,197(sp)
   14040:	00900693          	li	a3,9
   14044:	4f86c463          	blt	a3,s8,1452c <_vfprintf_r+0x2b74>
   14048:	03000693          	li	a3,48
   1404c:	0cd10323          	sb	a3,198(sp)
   14050:	0c710693          	addi	a3,sp,199
   14054:	1a010793          	addi	a5,sp,416
   14058:	40f68633          	sub	a2,a3,a5
   1405c:	030c0713          	addi	a4,s8,48
   14060:	0dd60793          	addi	a5,a2,221
   14064:	00e68023          	sb	a4,0(a3)
   14068:	02f12e23          	sw	a5,60(sp)
   1406c:	02012783          	lw	a5,32(sp)
   14070:	03c12683          	lw	a3,60(sp)
   14074:	00100713          	li	a4,1
   14078:	00d78d33          	add	s10,a5,a3
   1407c:	16f758e3          	bge	a4,a5,149ec <_vfprintf_r+0x3034>
   14080:	02c12783          	lw	a5,44(sp)
   14084:	00fd0d33          	add	s10,s10,a5
   14088:	fffd4693          	not	a3,s10
   1408c:	bff37313          	andi	t1,t1,-1025
   14090:	41f6d693          	srai	a3,a3,0x1f
   14094:	10036313          	ori	t1,t1,256
   14098:	00dd7c33          	and	s8,s10,a3
   1409c:	02012423          	sw	zero,40(sp)
   140a0:	02012223          	sw	zero,36(sp)
   140a4:	00000993          	li	s3,0
   140a8:	d50ff06f          	j	135f8 <_vfprintf_r+0x1c40>
   140ac:	000227b7          	lui	a5,0x22
   140b0:	43878893          	addi	a7,a5,1080 # 22438 <__clzsi2+0x98>
   140b4:	8a5ff06f          	j	13958 <_vfprintf_r+0x1fa0>
   140b8:	001c8793          	addi	a5,s9,1
   140bc:	02f12023          	sw	a5,32(sp)
   140c0:	00200613          	li	a2,2
   140c4:	02012983          	lw	s3,32(sp)
   140c8:	00c12503          	lw	a0,12(sp)
   140cc:	0a010d13          	addi	s10,sp,160
   140d0:	00098693          	mv	a3,s3
   140d4:	000d0593          	mv	a1,s10
   140d8:	0cc10813          	addi	a6,sp,204
   140dc:	0c010793          	addi	a5,sp,192
   140e0:	0bc10713          	addi	a4,sp,188
   140e4:	04612a23          	sw	t1,84(sp)
   140e8:	05c12623          	sw	t3,76(sp)
   140ec:	0a512023          	sw	t0,160(sp)
   140f0:	04512423          	sw	t0,72(sp)
   140f4:	0bf12223          	sw	t6,164(sp)
   140f8:	05f12223          	sw	t6,68(sp)
   140fc:	0be12423          	sw	t5,168(sp)
   14100:	03e12423          	sw	t5,40(sp)
   14104:	0bd12623          	sw	t4,172(sp)
   14108:	03d12223          	sw	t4,36(sp)
   1410c:	6ad010ef          	jal	15fb8 <_ldtoa_r>
   14110:	fdfdf693          	andi	a3,s11,-33
   14114:	04600613          	li	a2,70
   14118:	02412e83          	lw	t4,36(sp)
   1411c:	02812f03          	lw	t5,40(sp)
   14120:	04412f83          	lw	t6,68(sp)
   14124:	04812283          	lw	t0,72(sp)
   14128:	04c12e03          	lw	t3,76(sp)
   1412c:	05412303          	lw	t1,84(sp)
   14130:	00050893          	mv	a7,a0
   14134:	01350c33          	add	s8,a0,s3
   14138:	5cc68063          	beq	a3,a2,146f8 <_vfprintf_r+0x2d40>
   1413c:	000d0513          	mv	a0,s10
   14140:	09010593          	addi	a1,sp,144
   14144:	05112223          	sw	a7,68(sp)
   14148:	02612423          	sw	t1,40(sp)
   1414c:	03c12223          	sw	t3,36(sp)
   14150:	0a512023          	sw	t0,160(sp)
   14154:	0bf12223          	sw	t6,164(sp)
   14158:	0be12423          	sw	t5,168(sp)
   1415c:	0bd12623          	sw	t4,172(sp)
   14160:	08012823          	sw	zero,144(sp)
   14164:	08012a23          	sw	zero,148(sp)
   14168:	08012c23          	sw	zero,152(sp)
   1416c:	08012e23          	sw	zero,156(sp)
   14170:	1e80b0ef          	jal	1f358 <__eqtf2>
   14174:	02412e03          	lw	t3,36(sp)
   14178:	02812303          	lw	t1,40(sp)
   1417c:	04412883          	lw	a7,68(sp)
   14180:	00050c63          	beqz	a0,14198 <_vfprintf_r+0x27e0>
   14184:	0cc12783          	lw	a5,204(sp)
   14188:	04500693          	li	a3,69
   1418c:	e787e4e3          	bltu	a5,s8,13ff4 <_vfprintf_r+0x263c>
   14190:	411787b3          	sub	a5,a5,a7
   14194:	02f12023          	sw	a5,32(sp)
   14198:	0bc12983          	lw	s3,188(sp)
   1419c:	e8dff06f          	j	14028 <_vfprintf_r+0x2670>
   141a0:	0a010d13          	addi	s10,sp,160
   141a4:	09010593          	addi	a1,sp,144
   141a8:	000d0513          	mv	a0,s10
   141ac:	0bc10613          	addi	a2,sp,188
   141b0:	05112a23          	sw	a7,84(sp)
   141b4:	04612623          	sw	t1,76(sp)
   141b8:	05c12423          	sw	t3,72(sp)
   141bc:	08512823          	sw	t0,144(sp)
   141c0:	09f12a23          	sw	t6,148(sp)
   141c4:	09e12c23          	sw	t5,152(sp)
   141c8:	09d12e23          	sw	t4,156(sp)
   141cc:	02b12023          	sw	a1,32(sp)
   141d0:	3cd010ef          	jal	15d9c <frexpl>
   141d4:	0a412503          	lw	a0,164(sp)
   141d8:	0a812603          	lw	a2,168(sp)
   141dc:	0a012803          	lw	a6,160(sp)
   141e0:	0ac12683          	lw	a3,172(sp)
   141e4:	02012583          	lw	a1,32(sp)
   141e8:	3ffc0737          	lui	a4,0x3ffc0
   141ec:	08a12a23          	sw	a0,148(sp)
   141f0:	08c12c23          	sw	a2,152(sp)
   141f4:	000d0513          	mv	a0,s10
   141f8:	08010613          	addi	a2,sp,128
   141fc:	09012823          	sw	a6,144(sp)
   14200:	08d12e23          	sw	a3,156(sp)
   14204:	08e12623          	sw	a4,140(sp)
   14208:	08012023          	sw	zero,128(sp)
   1420c:	08012223          	sw	zero,132(sp)
   14210:	08012423          	sw	zero,136(sp)
   14214:	4500b0ef          	jal	1f664 <__multf3>
   14218:	02012583          	lw	a1,32(sp)
   1421c:	0a012f03          	lw	t5,160(sp)
   14220:	0a412e83          	lw	t4,164(sp)
   14224:	0a812803          	lw	a6,168(sp)
   14228:	0ac12603          	lw	a2,172(sp)
   1422c:	000d0513          	mv	a0,s10
   14230:	04b12223          	sw	a1,68(sp)
   14234:	03e12e23          	sw	t5,60(sp)
   14238:	03d12423          	sw	t4,40(sp)
   1423c:	03012223          	sw	a6,36(sp)
   14240:	02c12023          	sw	a2,32(sp)
   14244:	08012823          	sw	zero,144(sp)
   14248:	08012a23          	sw	zero,148(sp)
   1424c:	08012c23          	sw	zero,152(sp)
   14250:	08012e23          	sw	zero,156(sp)
   14254:	1040b0ef          	jal	1f358 <__eqtf2>
   14258:	02012603          	lw	a2,32(sp)
   1425c:	02412803          	lw	a6,36(sp)
   14260:	02812e83          	lw	t4,40(sp)
   14264:	03c12f03          	lw	t5,60(sp)
   14268:	04412583          	lw	a1,68(sp)
   1426c:	04812e03          	lw	t3,72(sp)
   14270:	04c12303          	lw	t1,76(sp)
   14274:	05412883          	lw	a7,84(sp)
   14278:	00051663          	bnez	a0,14284 <_vfprintf_r+0x28cc>
   1427c:	00100713          	li	a4,1
   14280:	0ae12e23          	sw	a4,188(sp)
   14284:	06100713          	li	a4,97
   14288:	08ed8ee3          	beq	s11,a4,14b24 <_vfprintf_r+0x316c>
   1428c:	00022737          	lui	a4,0x22
   14290:	45c70793          	addi	a5,a4,1116 # 2245c <__clzsi2+0xbc>
   14294:	02f12023          	sw	a5,32(sp)
   14298:	03712423          	sw	s7,40(sp)
   1429c:	05b12223          	sw	s11,68(sp)
   142a0:	fffc8c93          	addi	s9,s9,-1
   142a4:	03c12223          	sw	t3,36(sp)
   142a8:	02812e23          	sw	s0,60(sp)
   142ac:	00088a13          	mv	s4,a7
   142b0:	04612423          	sw	t1,72(sp)
   142b4:	05112623          	sw	a7,76(sp)
   142b8:	000f0b13          	mv	s6,t5
   142bc:	000e8b93          	mv	s7,t4
   142c0:	00080c13          	mv	s8,a6
   142c4:	00060d93          	mv	s11,a2
   142c8:	00058993          	mv	s3,a1
   142cc:	03c0006f          	j	14308 <_vfprintf_r+0x2950>
   142d0:	00098593          	mv	a1,s3
   142d4:	000d0513          	mv	a0,s10
   142d8:	0b612023          	sw	s6,160(sp)
   142dc:	0b712223          	sw	s7,164(sp)
   142e0:	0b812423          	sw	s8,168(sp)
   142e4:	0bb12623          	sw	s11,172(sp)
   142e8:	08012823          	sw	zero,144(sp)
   142ec:	08012a23          	sw	zero,148(sp)
   142f0:	08012c23          	sw	zero,152(sp)
   142f4:	08012e23          	sw	zero,156(sp)
   142f8:	00fc8433          	add	s0,s9,a5
   142fc:	05c0b0ef          	jal	1f358 <__eqtf2>
   14300:	7c050263          	beqz	a0,14ac4 <_vfprintf_r+0x310c>
   14304:	00040c93          	mv	s9,s0
   14308:	400307b7          	lui	a5,0x40030
   1430c:	08010613          	addi	a2,sp,128
   14310:	00098593          	mv	a1,s3
   14314:	000d0513          	mv	a0,s10
   14318:	08f12623          	sw	a5,140(sp)
   1431c:	09612823          	sw	s6,144(sp)
   14320:	09712a23          	sw	s7,148(sp)
   14324:	09812c23          	sw	s8,152(sp)
   14328:	09b12e23          	sw	s11,156(sp)
   1432c:	08012023          	sw	zero,128(sp)
   14330:	08012223          	sw	zero,132(sp)
   14334:	08012423          	sw	zero,136(sp)
   14338:	32c0b0ef          	jal	1f664 <__multf3>
   1433c:	000d0513          	mv	a0,s10
   14340:	3410d0ef          	jal	21e80 <__fixtfsi>
   14344:	00050413          	mv	s0,a0
   14348:	00040593          	mv	a1,s0
   1434c:	000d0513          	mv	a0,s10
   14350:	0a012d83          	lw	s11,160(sp)
   14354:	0a412c03          	lw	s8,164(sp)
   14358:	0a812b83          	lw	s7,168(sp)
   1435c:	0ac12b03          	lw	s6,172(sp)
   14360:	4190d0ef          	jal	21f78 <__floatsitf>
   14364:	0a012503          	lw	a0,160(sp)
   14368:	0a412583          	lw	a1,164(sp)
   1436c:	0a812603          	lw	a2,168(sp)
   14370:	0ac12703          	lw	a4,172(sp)
   14374:	06a12823          	sw	a0,112(sp)
   14378:	06b12a23          	sw	a1,116(sp)
   1437c:	06c12c23          	sw	a2,120(sp)
   14380:	08010593          	addi	a1,sp,128
   14384:	07010613          	addi	a2,sp,112
   14388:	00098513          	mv	a0,s3
   1438c:	09b12023          	sw	s11,128(sp)
   14390:	09812223          	sw	s8,132(sp)
   14394:	09712423          	sw	s7,136(sp)
   14398:	09612623          	sw	s6,140(sp)
   1439c:	06e12e23          	sw	a4,124(sp)
   143a0:	6700c0ef          	jal	20a10 <__subtf3>
   143a4:	02012783          	lw	a5,32(sp)
   143a8:	000a0293          	mv	t0,s4
   143ac:	001a0a13          	addi	s4,s4,1
   143b0:	00878733          	add	a4,a5,s0
   143b4:	00074703          	lbu	a4,0(a4)
   143b8:	09012b03          	lw	s6,144(sp)
   143bc:	09412b83          	lw	s7,148(sp)
   143c0:	09812c03          	lw	s8,152(sp)
   143c4:	09c12d83          	lw	s11,156(sp)
   143c8:	fff00793          	li	a5,-1
   143cc:	feea0fa3          	sb	a4,-1(s4)
   143d0:	f0fc90e3          	bne	s9,a5,142d0 <_vfprintf_r+0x2918>
   143d4:	02412e03          	lw	t3,36(sp)
   143d8:	04812303          	lw	t1,72(sp)
   143dc:	04c12883          	lw	a7,76(sp)
   143e0:	000b8e93          	mv	t4,s7
   143e4:	000c0813          	mv	a6,s8
   143e8:	000d8613          	mv	a2,s11
   143ec:	00098593          	mv	a1,s3
   143f0:	3ffe0cb7          	lui	s9,0x3ffe0
   143f4:	000d0513          	mv	a0,s10
   143f8:	07c12623          	sw	t3,108(sp)
   143fc:	06512423          	sw	t0,104(sp)
   14400:	06612223          	sw	t1,100(sp)
   14404:	03112223          	sw	a7,36(sp)
   14408:	06812023          	sw	s0,96(sp)
   1440c:	0b612023          	sw	s6,160(sp)
   14410:	05612e23          	sw	s6,92(sp)
   14414:	0bd12223          	sw	t4,164(sp)
   14418:	05d12c23          	sw	t4,88(sp)
   1441c:	0b012423          	sw	a6,168(sp)
   14420:	05012a23          	sw	a6,84(sp)
   14424:	0ac12623          	sw	a2,172(sp)
   14428:	04c12623          	sw	a2,76(sp)
   1442c:	08012823          	sw	zero,144(sp)
   14430:	08012a23          	sw	zero,148(sp)
   14434:	08012c23          	sw	zero,152(sp)
   14438:	09912e23          	sw	s9,156(sp)
   1443c:	05312423          	sw	s3,72(sp)
   14440:	7e50a0ef          	jal	1f424 <__getf2>
   14444:	03c12403          	lw	s0,60(sp)
   14448:	02812b83          	lw	s7,40(sp)
   1444c:	04412d83          	lw	s11,68(sp)
   14450:	02412883          	lw	a7,36(sp)
   14454:	06412303          	lw	t1,100(sp)
   14458:	06812283          	lw	t0,104(sp)
   1445c:	06c12e03          	lw	t3,108(sp)
   14460:	000a0c13          	mv	s8,s4
   14464:	04a04063          	bgtz	a0,144a4 <_vfprintf_r+0x2aec>
   14468:	00098593          	mv	a1,s3
   1446c:	000d0513          	mv	a0,s10
   14470:	05112223          	sw	a7,68(sp)
   14474:	02612e23          	sw	t1,60(sp)
   14478:	03c12223          	sw	t3,36(sp)
   1447c:	02512423          	sw	t0,40(sp)
   14480:	6d90a0ef          	jal	1f358 <__eqtf2>
   14484:	02412e03          	lw	t3,36(sp)
   14488:	03c12303          	lw	t1,60(sp)
   1448c:	04412883          	lw	a7,68(sp)
   14490:	04051e63          	bnez	a0,144ec <_vfprintf_r+0x2b34>
   14494:	06012683          	lw	a3,96(sp)
   14498:	02812283          	lw	t0,40(sp)
   1449c:	0016f693          	andi	a3,a3,1
   144a0:	04068663          	beqz	a3,144ec <_vfprintf_r+0x2b34>
   144a4:	02012783          	lw	a5,32(sp)
   144a8:	0c512623          	sw	t0,204(sp)
   144ac:	fffc4603          	lbu	a2,-1(s8)
   144b0:	00f7c583          	lbu	a1,15(a5) # 4003000f <__BSS_END__+0x4000c5bb>
   144b4:	000c0693          	mv	a3,s8
   144b8:	02b61063          	bne	a2,a1,144d8 <_vfprintf_r+0x2b20>
   144bc:	03000513          	li	a0,48
   144c0:	fea68fa3          	sb	a0,-1(a3)
   144c4:	0cc12683          	lw	a3,204(sp)
   144c8:	fff68793          	addi	a5,a3,-1
   144cc:	0cf12623          	sw	a5,204(sp)
   144d0:	fff6c603          	lbu	a2,-1(a3)
   144d4:	feb606e3          	beq	a2,a1,144c0 <_vfprintf_r+0x2b08>
   144d8:	00160593          	addi	a1,a2,1
   144dc:	03900513          	li	a0,57
   144e0:	0ff5f593          	zext.b	a1,a1
   144e4:	12a60463          	beq	a2,a0,1460c <_vfprintf_r+0x2c54>
   144e8:	feb68fa3          	sb	a1,-1(a3)
   144ec:	0bc12683          	lw	a3,188(sp)
   144f0:	411c07b3          	sub	a5,s8,a7
   144f4:	06100593          	li	a1,97
   144f8:	fff68c13          	addi	s8,a3,-1
   144fc:	02f12023          	sw	a5,32(sp)
   14500:	0b812e23          	sw	s8,188(sp)
   14504:	07000613          	li	a2,112
   14508:	00bd8663          	beq	s11,a1,14514 <_vfprintf_r+0x2b5c>
   1450c:	05000613          	li	a2,80
   14510:	04100d93          	li	s11,65
   14514:	0cc10223          	sb	a2,196(sp)
   14518:	0c0c4463          	bltz	s8,145e0 <_vfprintf_r+0x2c28>
   1451c:	02b00693          	li	a3,43
   14520:	0cd102a3          	sb	a3,197(sp)
   14524:	00900693          	li	a3,9
   14528:	0d86d863          	bge	a3,s8,145f8 <_vfprintf_r+0x2c40>
   1452c:	0d310a13          	addi	s4,sp,211
   14530:	02812e23          	sw	s0,60(sp)
   14534:	06300993          	li	s3,99
   14538:	000c0413          	mv	s0,s8
   1453c:	03c12223          	sw	t3,36(sp)
   14540:	03712423          	sw	s7,40(sp)
   14544:	000a0b13          	mv	s6,s4
   14548:	00030c13          	mv	s8,t1
   1454c:	00088c93          	mv	s9,a7
   14550:	00a00593          	li	a1,10
   14554:	00040513          	mv	a0,s0
   14558:	6190d0ef          	jal	22370 <__modsi3>
   1455c:	03050713          	addi	a4,a0,48
   14560:	000b0d13          	mv	s10,s6
   14564:	00040513          	mv	a0,s0
   14568:	feed0fa3          	sb	a4,-1(s10)
   1456c:	00a00593          	li	a1,10
   14570:	00040b93          	mv	s7,s0
   14574:	5790d0ef          	jal	222ec <__divsi3>
   14578:	fffb0b13          	addi	s6,s6,-1
   1457c:	00050413          	mv	s0,a0
   14580:	fd79c8e3          	blt	s3,s7,14550 <_vfprintf_r+0x2b98>
   14584:	03050713          	addi	a4,a0,48
   14588:	feeb0fa3          	sb	a4,-1(s6)
   1458c:	ffed0713          	addi	a4,s10,-2
   14590:	02412e03          	lw	t3,36(sp)
   14594:	02812b83          	lw	s7,40(sp)
   14598:	03c12403          	lw	s0,60(sp)
   1459c:	000c0313          	mv	t1,s8
   145a0:	000c8893          	mv	a7,s9
   145a4:	5f477a63          	bgeu	a4,s4,14b98 <_vfprintf_r+0x31e0>
   145a8:	0c610513          	addi	a0,sp,198
   145ac:	00050693          	mv	a3,a0
   145b0:	00074783          	lbu	a5,0(a4)
   145b4:	00170713          	addi	a4,a4,1
   145b8:	00168693          	addi	a3,a3,1
   145bc:	fef68fa3          	sb	a5,-1(a3)
   145c0:	ff4718e3          	bne	a4,s4,145b0 <_vfprintf_r+0x2bf8>
   145c4:	00a70733          	add	a4,a4,a0
   145c8:	00270713          	addi	a4,a4,2
   145cc:	41a70733          	sub	a4,a4,s10
   145d0:	0c410693          	addi	a3,sp,196
   145d4:	40d707b3          	sub	a5,a4,a3
   145d8:	02f12e23          	sw	a5,60(sp)
   145dc:	a91ff06f          	j	1406c <_vfprintf_r+0x26b4>
   145e0:	00100713          	li	a4,1
   145e4:	02d00613          	li	a2,45
   145e8:	40d70c33          	sub	s8,a4,a3
   145ec:	0cc102a3          	sb	a2,197(sp)
   145f0:	00900693          	li	a3,9
   145f4:	f386cce3          	blt	a3,s8,1452c <_vfprintf_r+0x2b74>
   145f8:	0c610693          	addi	a3,sp,198
   145fc:	a59ff06f          	j	14054 <_vfprintf_r+0x269c>
   14600:	03912023          	sw	s9,32(sp)
   14604:	00300613          	li	a2,3
   14608:	abdff06f          	j	140c4 <_vfprintf_r+0x270c>
   1460c:	02012783          	lw	a5,32(sp)
   14610:	00a7c583          	lbu	a1,10(a5)
   14614:	ed5ff06f          	j	144e8 <_vfprintf_r+0x2b30>
   14618:	0b714803          	lbu	a6,183(sp)
   1461c:	00080463          	beqz	a6,14624 <_vfprintf_r+0x2c6c>
   14620:	ff1fe06f          	j	13610 <_vfprintf_r+0x1c58>
   14624:	00000c93          	li	s9,0
   14628:	be1fe06f          	j	13208 <_vfprintf_r+0x1850>
   1462c:	01c12783          	lw	a5,28(sp)
   14630:	00900693          	li	a3,9
   14634:	00f6f463          	bgeu	a3,a5,1463c <_vfprintf_r+0x2c84>
   14638:	a99fe06f          	j	130d0 <_vfprintf_r+0x1718>
   1463c:	addfe06f          	j	13118 <_vfprintf_r+0x1760>
   14640:	01012583          	lw	a1,16(sp)
   14644:	00c12503          	lw	a0,12(sp)
   14648:	0d410613          	addi	a2,sp,212
   1464c:	6a8000ef          	jal	14cf4 <__sprint_r>
   14650:	00050463          	beqz	a0,14658 <_vfprintf_r+0x2ca0>
   14654:	b28fe06f          	j	1297c <_vfprintf_r+0xfc4>
   14658:	000b4683          	lbu	a3,0(s6)
   1465c:	0dc12603          	lw	a2,220(sp)
   14660:	000a8713          	mv	a4,s5
   14664:	00700813          	li	a6,7
   14668:	00dc0c33          	add	s8,s8,a3
   1466c:	dd8ff06f          	j	13c44 <_vfprintf_r+0x228c>
   14670:	411c07b3          	sub	a5,s8,a7
   14674:	04700613          	li	a2,71
   14678:	02f12023          	sw	a5,32(sp)
   1467c:	0bc12983          	lw	s3,188(sp)
   14680:	1ec69663          	bne	a3,a2,1486c <_vfprintf_r+0x2eb4>
   14684:	ffd00713          	li	a4,-3
   14688:	0ce9c663          	blt	s3,a4,14754 <_vfprintf_r+0x2d9c>
   1468c:	033cd663          	bge	s9,s3,146b8 <_vfprintf_r+0x2d00>
   14690:	ffed8d93          	addi	s11,s11,-2
   14694:	fff98c13          	addi	s8,s3,-1
   14698:	0db10223          	sb	s11,196(sp)
   1469c:	0b812e23          	sw	s8,188(sp)
   146a0:	980c5ce3          	bgez	s8,14038 <_vfprintf_r+0x2680>
   146a4:	00100713          	li	a4,1
   146a8:	02d00693          	li	a3,45
   146ac:	41370c33          	sub	s8,a4,s3
   146b0:	0cd102a3          	sb	a3,197(sp)
   146b4:	995ff06f          	j	14048 <_vfprintf_r+0x2690>
   146b8:	02012783          	lw	a5,32(sp)
   146bc:	1ef9c463          	blt	s3,a5,148a4 <_vfprintf_r+0x2eec>
   146c0:	00137713          	andi	a4,t1,1
   146c4:	00098d13          	mv	s10,s3
   146c8:	00071463          	bnez	a4,146d0 <_vfprintf_r+0x2d18>
   146cc:	f01fe06f          	j	135cc <_vfprintf_r+0x1c14>
   146d0:	02c12783          	lw	a5,44(sp)
   146d4:	00f98d33          	add	s10,s3,a5
   146d8:	ef5fe06f          	j	135cc <_vfprintf_r+0x1c14>
   146dc:	02d00793          	li	a5,45
   146e0:	0af10ba3          	sb	a5,183(sp)
   146e4:	04700793          	li	a5,71
   146e8:	2db7de63          	bge	a5,s11,149c4 <_vfprintf_r+0x300c>
   146ec:	000227b7          	lui	a5,0x22
   146f0:	43c78893          	addi	a7,a5,1084 # 2243c <__clzsi2+0x9c>
   146f4:	b6cff06f          	j	13a60 <_vfprintf_r+0x20a8>
   146f8:	0008c583          	lbu	a1,0(a7)
   146fc:	03000613          	li	a2,48
   14700:	0ec58263          	beq	a1,a2,147e4 <_vfprintf_r+0x2e2c>
   14704:	0bc12603          	lw	a2,188(sp)
   14708:	09010593          	addi	a1,sp,144
   1470c:	00cc0c33          	add	s8,s8,a2
   14710:	891ff06f          	j	13fa0 <_vfprintf_r+0x25e8>
   14714:	01012583          	lw	a1,16(sp)
   14718:	00c12503          	lw	a0,12(sp)
   1471c:	0d410613          	addi	a2,sp,212
   14720:	03112c23          	sw	a7,56(sp)
   14724:	02612423          	sw	t1,40(sp)
   14728:	03c12223          	sw	t3,36(sp)
   1472c:	5c8000ef          	jal	14cf4 <__sprint_r>
   14730:	00050463          	beqz	a0,14738 <_vfprintf_r+0x2d80>
   14734:	a48fe06f          	j	1297c <_vfprintf_r+0xfc4>
   14738:	0bc12c83          	lw	s9,188(sp)
   1473c:	0dc12603          	lw	a2,220(sp)
   14740:	03812883          	lw	a7,56(sp)
   14744:	02812303          	lw	t1,40(sp)
   14748:	02412e03          	lw	t3,36(sp)
   1474c:	000a8413          	mv	s0,s5
   14750:	d94fe06f          	j	12ce4 <_vfprintf_r+0x132c>
   14754:	ffed8d93          	addi	s11,s11,-2
   14758:	fff98713          	addi	a4,s3,-1
   1475c:	0db10223          	sb	s11,196(sp)
   14760:	0ae12e23          	sw	a4,188(sp)
   14764:	02d00693          	li	a3,45
   14768:	00100713          	li	a4,1
   1476c:	0cd102a3          	sb	a3,197(sp)
   14770:	41370c33          	sub	s8,a4,s3
   14774:	00900693          	li	a3,9
   14778:	db86cae3          	blt	a3,s8,1452c <_vfprintf_r+0x2b74>
   1477c:	8cdff06f          	j	14048 <_vfprintf_r+0x2690>
   14780:	01312c23          	sw	s3,24(sp)
   14784:	24070663          	beqz	a4,149d0 <_vfprintf_r+0x3018>
   14788:	001c8c13          	addi	s8,s9,1 # 3ffe0001 <__BSS_END__+0x3ffbc5ad>
   1478c:	000c8d13          	mv	s10,s9
   14790:	02012423          	sw	zero,40(sp)
   14794:	00000c93          	li	s9,0
   14798:	02012223          	sw	zero,36(sp)
   1479c:	00000993          	li	s3,0
   147a0:	c40fd06f          	j	11be0 <_vfprintf_r+0x228>
   147a4:	01012583          	lw	a1,16(sp)
   147a8:	00c12503          	lw	a0,12(sp)
   147ac:	0d410613          	addi	a2,sp,212
   147b0:	02612423          	sw	t1,40(sp)
   147b4:	03c12223          	sw	t3,36(sp)
   147b8:	53c000ef          	jal	14cf4 <__sprint_r>
   147bc:	00050463          	beqz	a0,147c4 <_vfprintf_r+0x2e0c>
   147c0:	9bcfe06f          	j	1297c <_vfprintf_r+0xfc4>
   147c4:	0bc12c83          	lw	s9,188(sp)
   147c8:	02012783          	lw	a5,32(sp)
   147cc:	0dc12603          	lw	a2,220(sp)
   147d0:	02812303          	lw	t1,40(sp)
   147d4:	02412e03          	lw	t3,36(sp)
   147d8:	000a8413          	mv	s0,s5
   147dc:	41978cb3          	sub	s9,a5,s9
   147e0:	d4cfe06f          	j	12d2c <_vfprintf_r+0x1374>
   147e4:	09010593          	addi	a1,sp,144
   147e8:	000d0513          	mv	a0,s10
   147ec:	07112023          	sw	a7,96(sp)
   147f0:	04d12e23          	sw	a3,92(sp)
   147f4:	04612c23          	sw	t1,88(sp)
   147f8:	05c12a23          	sw	t3,84(sp)
   147fc:	0a512023          	sw	t0,160(sp)
   14800:	04512623          	sw	t0,76(sp)
   14804:	0bf12223          	sw	t6,164(sp)
   14808:	05f12423          	sw	t6,72(sp)
   1480c:	0be12423          	sw	t5,168(sp)
   14810:	05e12223          	sw	t5,68(sp)
   14814:	0bd12623          	sw	t4,172(sp)
   14818:	03d12423          	sw	t4,40(sp)
   1481c:	02b12223          	sw	a1,36(sp)
   14820:	08012823          	sw	zero,144(sp)
   14824:	08012a23          	sw	zero,148(sp)
   14828:	08012c23          	sw	zero,152(sp)
   1482c:	08012e23          	sw	zero,156(sp)
   14830:	3290a0ef          	jal	1f358 <__eqtf2>
   14834:	02412583          	lw	a1,36(sp)
   14838:	02812e83          	lw	t4,40(sp)
   1483c:	04412f03          	lw	t5,68(sp)
   14840:	04812f83          	lw	t6,72(sp)
   14844:	04c12283          	lw	t0,76(sp)
   14848:	05412e03          	lw	t3,84(sp)
   1484c:	05812303          	lw	t1,88(sp)
   14850:	05c12683          	lw	a3,92(sp)
   14854:	06012883          	lw	a7,96(sp)
   14858:	2a051a63          	bnez	a0,14b0c <_vfprintf_r+0x3154>
   1485c:	0bc12983          	lw	s3,188(sp)
   14860:	013c0733          	add	a4,s8,s3
   14864:	411707b3          	sub	a5,a4,a7
   14868:	02f12023          	sw	a5,32(sp)
   1486c:	00137713          	andi	a4,t1,1
   14870:	01976733          	or	a4,a4,s9
   14874:	2f305863          	blez	s3,14b64 <_vfprintf_r+0x31ac>
   14878:	22071c63          	bnez	a4,14ab0 <_vfprintf_r+0x30f8>
   1487c:	00098d13          	mv	s10,s3
   14880:	06600d93          	li	s11,102
   14884:	40037313          	andi	t1,t1,1024
   14888:	1a031063          	bnez	t1,14a28 <_vfprintf_r+0x3070>
   1488c:	fffd4693          	not	a3,s10
   14890:	41f6d693          	srai	a3,a3,0x1f
   14894:	00dd7c33          	and	s8,s10,a3
   14898:	d55fe06f          	j	135ec <_vfprintf_r+0x1c34>
   1489c:	000a0e93          	mv	t4,s4
   148a0:	f5cfe06f          	j	12ffc <_vfprintf_r+0x1644>
   148a4:	02012783          	lw	a5,32(sp)
   148a8:	02c12703          	lw	a4,44(sp)
   148ac:	06700d93          	li	s11,103
   148b0:	00e78d33          	add	s10,a5,a4
   148b4:	fd3048e3          	bgtz	s3,14884 <_vfprintf_r+0x2ecc>
   148b8:	413d0eb3          	sub	t4,s10,s3
   148bc:	001e8d13          	addi	s10,t4,1
   148c0:	fffd4693          	not	a3,s10
   148c4:	41f6d693          	srai	a3,a3,0x1f
   148c8:	00dd7c33          	and	s8,s10,a3
   148cc:	d21fe06f          	j	135ec <_vfprintf_r+0x1c34>
   148d0:	ff000713          	li	a4,-16
   148d4:	40a00cb3          	neg	s9,a0
   148d8:	2ce55663          	bge	a0,a4,14ba4 <_vfprintf_r+0x31ec>
   148dc:	00022737          	lui	a4,0x22
   148e0:	79870713          	addi	a4,a4,1944 # 22798 <zeroes.0>
   148e4:	01000d13          	li	s10,16
   148e8:	00700d93          	li	s11,7
   148ec:	03c12223          	sw	t3,36(sp)
   148f0:	00030a13          	mv	s4,t1
   148f4:	00088b13          	mv	s6,a7
   148f8:	00070993          	mv	s3,a4
   148fc:	00c0006f          	j	14908 <_vfprintf_r+0x2f50>
   14900:	ff0c8c93          	addi	s9,s9,-16
   14904:	059d5663          	bge	s10,s9,14950 <_vfprintf_r+0x2f98>
   14908:	01060613          	addi	a2,a2,16
   1490c:	00158593          	addi	a1,a1,1
   14910:	01342023          	sw	s3,0(s0)
   14914:	01a42223          	sw	s10,4(s0)
   14918:	0cc12e23          	sw	a2,220(sp)
   1491c:	0cb12c23          	sw	a1,216(sp)
   14920:	00840413          	addi	s0,s0,8
   14924:	fcbddee3          	bge	s11,a1,14900 <_vfprintf_r+0x2f48>
   14928:	01012583          	lw	a1,16(sp)
   1492c:	00c12503          	lw	a0,12(sp)
   14930:	0d410613          	addi	a2,sp,212
   14934:	3c0000ef          	jal	14cf4 <__sprint_r>
   14938:	00050463          	beqz	a0,14940 <_vfprintf_r+0x2f88>
   1493c:	840fe06f          	j	1297c <_vfprintf_r+0xfc4>
   14940:	0dc12603          	lw	a2,220(sp)
   14944:	0d812583          	lw	a1,216(sp)
   14948:	000a8413          	mv	s0,s5
   1494c:	fb5ff06f          	j	14900 <_vfprintf_r+0x2f48>
   14950:	02412e03          	lw	t3,36(sp)
   14954:	000a0313          	mv	t1,s4
   14958:	000b0893          	mv	a7,s6
   1495c:	00098713          	mv	a4,s3
   14960:	01960633          	add	a2,a2,s9
   14964:	00158593          	addi	a1,a1,1
   14968:	00e42023          	sw	a4,0(s0)
   1496c:	0cc12e23          	sw	a2,220(sp)
   14970:	0cb12c23          	sw	a1,216(sp)
   14974:	01942223          	sw	s9,4(s0)
   14978:	00700713          	li	a4,7
   1497c:	00b74463          	blt	a4,a1,14984 <_vfprintf_r+0x2fcc>
   14980:	e81fe06f          	j	13800 <_vfprintf_r+0x1e48>
   14984:	01012583          	lw	a1,16(sp)
   14988:	00c12503          	lw	a0,12(sp)
   1498c:	0d410613          	addi	a2,sp,212
   14990:	03112c23          	sw	a7,56(sp)
   14994:	02612423          	sw	t1,40(sp)
   14998:	03c12223          	sw	t3,36(sp)
   1499c:	358000ef          	jal	14cf4 <__sprint_r>
   149a0:	00050463          	beqz	a0,149a8 <_vfprintf_r+0x2ff0>
   149a4:	fd9fd06f          	j	1297c <_vfprintf_r+0xfc4>
   149a8:	0dc12603          	lw	a2,220(sp)
   149ac:	0d812583          	lw	a1,216(sp)
   149b0:	03812883          	lw	a7,56(sp)
   149b4:	02812303          	lw	t1,40(sp)
   149b8:	02412e03          	lw	t3,36(sp)
   149bc:	000a8413          	mv	s0,s5
   149c0:	dccfd06f          	j	11f8c <_vfprintf_r+0x5d4>
   149c4:	000227b7          	lui	a5,0x22
   149c8:	43878893          	addi	a7,a5,1080 # 22438 <__clzsi2+0x98>
   149cc:	894ff06f          	j	13a60 <_vfprintf_r+0x20a8>
   149d0:	000c8d13          	mv	s10,s9
   149d4:	000c8c13          	mv	s8,s9
   149d8:	02012423          	sw	zero,40(sp)
   149dc:	00000c93          	li	s9,0
   149e0:	02012223          	sw	zero,36(sp)
   149e4:	00000993          	li	s3,0
   149e8:	9f8fd06f          	j	11be0 <_vfprintf_r+0x228>
   149ec:	00e37733          	and	a4,t1,a4
   149f0:	e8070c63          	beqz	a4,14088 <_vfprintf_r+0x26d0>
   149f4:	e8cff06f          	j	14080 <_vfprintf_r+0x26c8>
   149f8:	00012e23          	sw	zero,28(sp)
   149fc:	00600c93          	li	s9,6
   14a00:	cb0fd06f          	j	11eb0 <_vfprintf_r+0x4f8>
   14a04:	000227b7          	lui	a5,0x22
   14a08:	44078893          	addi	a7,a5,1088 # 22440 <__clzsi2+0xa0>
   14a0c:	854ff06f          	j	13a60 <_vfprintf_r+0x20a8>
   14a10:	000227b7          	lui	a5,0x22
   14a14:	44078893          	addi	a7,a5,1088 # 22440 <__clzsi2+0xa0>
   14a18:	d18ff06f          	j	13f30 <_vfprintf_r+0x2578>
   14a1c:	01012983          	lw	s3,16(sp)
   14a20:	f71fd06f          	j	12990 <_vfprintf_r+0xfd8>
   14a24:	06700d93          	li	s11,103
   14a28:	03012783          	lw	a5,48(sp)
   14a2c:	0ff00693          	li	a3,255
   14a30:	0007c703          	lbu	a4,0(a5)
   14a34:	1cd70063          	beq	a4,a3,14bf4 <_vfprintf_r+0x323c>
   14a38:	00000593          	li	a1,0
   14a3c:	00000613          	li	a2,0
   14a40:	01375e63          	bge	a4,s3,14a5c <_vfprintf_r+0x30a4>
   14a44:	40e989b3          	sub	s3,s3,a4
   14a48:	0017c703          	lbu	a4,1(a5)
   14a4c:	04070c63          	beqz	a4,14aa4 <_vfprintf_r+0x30ec>
   14a50:	00160613          	addi	a2,a2,1
   14a54:	00178793          	addi	a5,a5,1
   14a58:	fed714e3          	bne	a4,a3,14a40 <_vfprintf_r+0x3088>
   14a5c:	02f12823          	sw	a5,48(sp)
   14a60:	02c12223          	sw	a2,36(sp)
   14a64:	02b12423          	sw	a1,40(sp)
   14a68:	02812783          	lw	a5,40(sp)
   14a6c:	02412703          	lw	a4,36(sp)
   14a70:	05012583          	lw	a1,80(sp)
   14a74:	05112423          	sw	a7,72(sp)
   14a78:	00e78533          	add	a0,a5,a4
   14a7c:	05c12223          	sw	t3,68(sp)
   14a80:	0490d0ef          	jal	222c8 <__mulsi3>
   14a84:	01a50d33          	add	s10,a0,s10
   14a88:	fffd4693          	not	a3,s10
   14a8c:	41f6d693          	srai	a3,a3,0x1f
   14a90:	04412e03          	lw	t3,68(sp)
   14a94:	04812883          	lw	a7,72(sp)
   14a98:	000a0313          	mv	t1,s4
   14a9c:	00dd7c33          	and	s8,s10,a3
   14aa0:	b59fe06f          	j	135f8 <_vfprintf_r+0x1c40>
   14aa4:	0007c703          	lbu	a4,0(a5)
   14aa8:	00158593          	addi	a1,a1,1
   14aac:	fadff06f          	j	14a58 <_vfprintf_r+0x30a0>
   14ab0:	02c12783          	lw	a5,44(sp)
   14ab4:	06600d93          	li	s11,102
   14ab8:	00fc8eb3          	add	t4,s9,a5
   14abc:	013e8d33          	add	s10,t4,s3
   14ac0:	dc5ff06f          	j	14884 <_vfprintf_r+0x2ecc>
   14ac4:	02412e03          	lw	t3,36(sp)
   14ac8:	02812b83          	lw	s7,40(sp)
   14acc:	03c12403          	lw	s0,60(sp)
   14ad0:	04412d83          	lw	s11,68(sp)
   14ad4:	04812303          	lw	t1,72(sp)
   14ad8:	04c12883          	lw	a7,76(sp)
   14adc:	000a0c13          	mv	s8,s4
   14ae0:	a00cc6e3          	bltz	s9,144ec <_vfprintf_r+0x2b34>
   14ae4:	001c8613          	addi	a2,s9,1
   14ae8:	00ca0633          	add	a2,s4,a2
   14aec:	000a0693          	mv	a3,s4
   14af0:	03000593          	li	a1,48
   14af4:	00168693          	addi	a3,a3,1
   14af8:	feb68fa3          	sb	a1,-1(a3)
   14afc:	fed61ce3          	bne	a2,a3,14af4 <_vfprintf_r+0x313c>
   14b00:	019c0fb3          	add	t6,s8,s9
   14b04:	001f8c13          	addi	s8,t6,1
   14b08:	9e5ff06f          	j	144ec <_vfprintf_r+0x2b34>
   14b0c:	02012783          	lw	a5,32(sp)
   14b10:	00100613          	li	a2,1
   14b14:	40f60633          	sub	a2,a2,a5
   14b18:	0ac12e23          	sw	a2,188(sp)
   14b1c:	00cc0c33          	add	s8,s8,a2
   14b20:	c80ff06f          	j	13fa0 <_vfprintf_r+0x25e8>
   14b24:	00022737          	lui	a4,0x22
   14b28:	44870793          	addi	a5,a4,1096 # 22448 <__clzsi2+0xa8>
   14b2c:	02f12023          	sw	a5,32(sp)
   14b30:	f68ff06f          	j	14298 <_vfprintf_r+0x28e0>
   14b34:	00022737          	lui	a4,0x22
   14b38:	79870713          	addi	a4,a4,1944 # 22798 <zeroes.0>
   14b3c:	f24fe06f          	j	13260 <_vfprintf_r+0x18a8>
   14b40:	01812783          	lw	a5,24(sp)
   14b44:	0007ac83          	lw	s9,0(a5)
   14b48:	00478793          	addi	a5,a5,4
   14b4c:	000cd463          	bgez	s9,14b54 <_vfprintf_r+0x319c>
   14b50:	fff00c93          	li	s9,-1
   14b54:	0019cd83          	lbu	s11,1(s3)
   14b58:	00f12c23          	sw	a5,24(sp)
   14b5c:	00068993          	mv	s3,a3
   14b60:	ff5fc06f          	j	11b54 <_vfprintf_r+0x19c>
   14b64:	00071a63          	bnez	a4,14b78 <_vfprintf_r+0x31c0>
   14b68:	00100c13          	li	s8,1
   14b6c:	000c0d13          	mv	s10,s8
   14b70:	06600d93          	li	s11,102
   14b74:	a79fe06f          	j	135ec <_vfprintf_r+0x1c34>
   14b78:	02c12783          	lw	a5,44(sp)
   14b7c:	06600d93          	li	s11,102
   14b80:	00178e93          	addi	t4,a5,1
   14b84:	019e8d33          	add	s10,t4,s9
   14b88:	fffd4693          	not	a3,s10
   14b8c:	41f6d693          	srai	a3,a3,0x1f
   14b90:	00dd7c33          	and	s8,s10,a3
   14b94:	a59fe06f          	j	135ec <_vfprintf_r+0x1c34>
   14b98:	00200793          	li	a5,2
   14b9c:	02f12e23          	sw	a5,60(sp)
   14ba0:	cccff06f          	j	1406c <_vfprintf_r+0x26b4>
   14ba4:	00022737          	lui	a4,0x22
   14ba8:	79870713          	addi	a4,a4,1944 # 22798 <zeroes.0>
   14bac:	db5ff06f          	j	14960 <_vfprintf_r+0x2fa8>
   14bb0:	01012983          	lw	s3,16(sp)
   14bb4:	00c9d783          	lhu	a5,12(s3)
   14bb8:	0407e793          	ori	a5,a5,64
   14bbc:	00f99623          	sh	a5,12(s3)
   14bc0:	dd1fd06f          	j	12990 <_vfprintf_r+0xfd8>
   14bc4:	00100c13          	li	s8,1
   14bc8:	00f12c23          	sw	a5,24(sp)
   14bcc:	000c0d13          	mv	s10,s8
   14bd0:	00012e23          	sw	zero,28(sp)
   14bd4:	b2dfd06f          	j	12700 <_vfprintf_r+0xd48>
   14bd8:	00000c93          	li	s9,0
   14bdc:	02012423          	sw	zero,40(sp)
   14be0:	02012223          	sw	zero,36(sp)
   14be4:	00012e23          	sw	zero,28(sp)
   14be8:	00300d13          	li	s10,3
   14bec:	00400c13          	li	s8,4
   14bf0:	ff1fc06f          	j	11be0 <_vfprintf_r+0x228>
   14bf4:	02012423          	sw	zero,40(sp)
   14bf8:	02012223          	sw	zero,36(sp)
   14bfc:	e6dff06f          	j	14a68 <_vfprintf_r+0x30b0>
   14c00:	411787b3          	sub	a5,a5,a7
   14c04:	04700713          	li	a4,71
   14c08:	02f12023          	sw	a5,32(sp)
   14c0c:	0bc12983          	lw	s3,188(sp)
   14c10:	c4e69ee3          	bne	a3,a4,1486c <_vfprintf_r+0x2eb4>
   14c14:	a71ff06f          	j	14684 <_vfprintf_r+0x2ccc>

00014c18 <vfprintf>:
   14c18:	00050713          	mv	a4,a0
   14c1c:	f0c1a503          	lw	a0,-244(gp) # 2371c <_impure_ptr>
   14c20:	00058793          	mv	a5,a1
   14c24:	00060693          	mv	a3,a2
   14c28:	00070593          	mv	a1,a4
   14c2c:	00078613          	mv	a2,a5
   14c30:	d89fc06f          	j	119b8 <_vfprintf_r>

00014c34 <__sbprintf>:
   14c34:	00c5d783          	lhu	a5,12(a1)
   14c38:	0645ae83          	lw	t4,100(a1)
   14c3c:	00e5de03          	lhu	t3,14(a1)
   14c40:	01c5a303          	lw	t1,28(a1)
   14c44:	0245a883          	lw	a7,36(a1)
   14c48:	b8010113          	addi	sp,sp,-1152
   14c4c:	07010813          	addi	a6,sp,112
   14c50:	40000713          	li	a4,1024
   14c54:	46812c23          	sw	s0,1144(sp)
   14c58:	ffd7f793          	andi	a5,a5,-3
   14c5c:	00058413          	mv	s0,a1
   14c60:	00810593          	addi	a1,sp,8
   14c64:	46912a23          	sw	s1,1140(sp)
   14c68:	47212823          	sw	s2,1136(sp)
   14c6c:	46112e23          	sw	ra,1148(sp)
   14c70:	02012023          	sw	zero,32(sp)
   14c74:	00f11a23          	sh	a5,20(sp)
   14c78:	07d12623          	sw	t4,108(sp)
   14c7c:	01c11b23          	sh	t3,22(sp)
   14c80:	02612223          	sw	t1,36(sp)
   14c84:	03112623          	sw	a7,44(sp)
   14c88:	00050913          	mv	s2,a0
   14c8c:	01012423          	sw	a6,8(sp)
   14c90:	01012c23          	sw	a6,24(sp)
   14c94:	00e12823          	sw	a4,16(sp)
   14c98:	00e12e23          	sw	a4,28(sp)
   14c9c:	d1dfc0ef          	jal	119b8 <_vfprintf_r>
   14ca0:	00050493          	mv	s1,a0
   14ca4:	02055c63          	bgez	a0,14cdc <__sbprintf+0xa8>
   14ca8:	01415783          	lhu	a5,20(sp)
   14cac:	0407f793          	andi	a5,a5,64
   14cb0:	00078863          	beqz	a5,14cc0 <__sbprintf+0x8c>
   14cb4:	00c45783          	lhu	a5,12(s0)
   14cb8:	0407e793          	ori	a5,a5,64
   14cbc:	00f41623          	sh	a5,12(s0)
   14cc0:	47c12083          	lw	ra,1148(sp)
   14cc4:	47812403          	lw	s0,1144(sp)
   14cc8:	47012903          	lw	s2,1136(sp)
   14ccc:	00048513          	mv	a0,s1
   14cd0:	47412483          	lw	s1,1140(sp)
   14cd4:	48010113          	addi	sp,sp,1152
   14cd8:	00008067          	ret
   14cdc:	00810593          	addi	a1,sp,8
   14ce0:	00090513          	mv	a0,s2
   14ce4:	3c8000ef          	jal	150ac <_fflush_r>
   14ce8:	fc0500e3          	beqz	a0,14ca8 <__sbprintf+0x74>
   14cec:	fff00493          	li	s1,-1
   14cf0:	fb9ff06f          	j	14ca8 <__sbprintf+0x74>

00014cf4 <__sprint_r>:
   14cf4:	00862783          	lw	a5,8(a2)
   14cf8:	ff010113          	addi	sp,sp,-16
   14cfc:	00812423          	sw	s0,8(sp)
   14d00:	00112623          	sw	ra,12(sp)
   14d04:	00060413          	mv	s0,a2
   14d08:	00079e63          	bnez	a5,14d24 <__sprint_r+0x30>
   14d0c:	00c12083          	lw	ra,12(sp)
   14d10:	00042223          	sw	zero,4(s0)
   14d14:	00812403          	lw	s0,8(sp)
   14d18:	00000513          	li	a0,0
   14d1c:	01010113          	addi	sp,sp,16
   14d20:	00008067          	ret
   14d24:	46c000ef          	jal	15190 <__sfvwrite_r>
   14d28:	00c12083          	lw	ra,12(sp)
   14d2c:	00042423          	sw	zero,8(s0)
   14d30:	00042223          	sw	zero,4(s0)
   14d34:	00812403          	lw	s0,8(sp)
   14d38:	01010113          	addi	sp,sp,16
   14d3c:	00008067          	ret

00014d40 <_fclose_r>:
   14d40:	ff010113          	addi	sp,sp,-16
   14d44:	00112623          	sw	ra,12(sp)
   14d48:	01212023          	sw	s2,0(sp)
   14d4c:	02058863          	beqz	a1,14d7c <_fclose_r+0x3c>
   14d50:	00812423          	sw	s0,8(sp)
   14d54:	00912223          	sw	s1,4(sp)
   14d58:	00058413          	mv	s0,a1
   14d5c:	00050493          	mv	s1,a0
   14d60:	00050663          	beqz	a0,14d6c <_fclose_r+0x2c>
   14d64:	03452783          	lw	a5,52(a0)
   14d68:	0c078c63          	beqz	a5,14e40 <_fclose_r+0x100>
   14d6c:	00c41783          	lh	a5,12(s0)
   14d70:	02079263          	bnez	a5,14d94 <_fclose_r+0x54>
   14d74:	00812403          	lw	s0,8(sp)
   14d78:	00412483          	lw	s1,4(sp)
   14d7c:	00c12083          	lw	ra,12(sp)
   14d80:	00000913          	li	s2,0
   14d84:	00090513          	mv	a0,s2
   14d88:	00012903          	lw	s2,0(sp)
   14d8c:	01010113          	addi	sp,sp,16
   14d90:	00008067          	ret
   14d94:	00040593          	mv	a1,s0
   14d98:	00048513          	mv	a0,s1
   14d9c:	0b8000ef          	jal	14e54 <__sflush_r>
   14da0:	02c42783          	lw	a5,44(s0)
   14da4:	00050913          	mv	s2,a0
   14da8:	00078a63          	beqz	a5,14dbc <_fclose_r+0x7c>
   14dac:	01c42583          	lw	a1,28(s0)
   14db0:	00048513          	mv	a0,s1
   14db4:	000780e7          	jalr	a5
   14db8:	06054463          	bltz	a0,14e20 <_fclose_r+0xe0>
   14dbc:	00c45783          	lhu	a5,12(s0)
   14dc0:	0807f793          	andi	a5,a5,128
   14dc4:	06079663          	bnez	a5,14e30 <_fclose_r+0xf0>
   14dc8:	03042583          	lw	a1,48(s0)
   14dcc:	00058c63          	beqz	a1,14de4 <_fclose_r+0xa4>
   14dd0:	04040793          	addi	a5,s0,64
   14dd4:	00f58663          	beq	a1,a5,14de0 <_fclose_r+0xa0>
   14dd8:	00048513          	mv	a0,s1
   14ddc:	8dcfc0ef          	jal	10eb8 <_free_r>
   14de0:	02042823          	sw	zero,48(s0)
   14de4:	04442583          	lw	a1,68(s0)
   14de8:	00058863          	beqz	a1,14df8 <_fclose_r+0xb8>
   14dec:	00048513          	mv	a0,s1
   14df0:	8c8fc0ef          	jal	10eb8 <_free_r>
   14df4:	04042223          	sw	zero,68(s0)
   14df8:	f64fb0ef          	jal	1055c <__sfp_lock_acquire>
   14dfc:	00041623          	sh	zero,12(s0)
   14e00:	f60fb0ef          	jal	10560 <__sfp_lock_release>
   14e04:	00c12083          	lw	ra,12(sp)
   14e08:	00812403          	lw	s0,8(sp)
   14e0c:	00412483          	lw	s1,4(sp)
   14e10:	00090513          	mv	a0,s2
   14e14:	00012903          	lw	s2,0(sp)
   14e18:	01010113          	addi	sp,sp,16
   14e1c:	00008067          	ret
   14e20:	00c45783          	lhu	a5,12(s0)
   14e24:	fff00913          	li	s2,-1
   14e28:	0807f793          	andi	a5,a5,128
   14e2c:	f8078ee3          	beqz	a5,14dc8 <_fclose_r+0x88>
   14e30:	01042583          	lw	a1,16(s0)
   14e34:	00048513          	mv	a0,s1
   14e38:	880fc0ef          	jal	10eb8 <_free_r>
   14e3c:	f8dff06f          	j	14dc8 <_fclose_r+0x88>
   14e40:	ef8fb0ef          	jal	10538 <__sinit>
   14e44:	f29ff06f          	j	14d6c <_fclose_r+0x2c>

00014e48 <fclose>:
   14e48:	00050593          	mv	a1,a0
   14e4c:	f0c1a503          	lw	a0,-244(gp) # 2371c <_impure_ptr>
   14e50:	ef1ff06f          	j	14d40 <_fclose_r>

00014e54 <__sflush_r>:
   14e54:	00c59703          	lh	a4,12(a1)
   14e58:	fe010113          	addi	sp,sp,-32
   14e5c:	00812c23          	sw	s0,24(sp)
   14e60:	01312623          	sw	s3,12(sp)
   14e64:	00112e23          	sw	ra,28(sp)
   14e68:	00877793          	andi	a5,a4,8
   14e6c:	00058413          	mv	s0,a1
   14e70:	00050993          	mv	s3,a0
   14e74:	12079063          	bnez	a5,14f94 <__sflush_r+0x140>
   14e78:	000017b7          	lui	a5,0x1
   14e7c:	80078793          	addi	a5,a5,-2048 # 800 <exit-0xf8b4>
   14e80:	0045a683          	lw	a3,4(a1)
   14e84:	00f767b3          	or	a5,a4,a5
   14e88:	00f59623          	sh	a5,12(a1)
   14e8c:	18d05a63          	blez	a3,15020 <__sflush_r+0x1cc>
   14e90:	02842803          	lw	a6,40(s0)
   14e94:	0e080463          	beqz	a6,14f7c <__sflush_r+0x128>
   14e98:	00912a23          	sw	s1,20(sp)
   14e9c:	01371693          	slli	a3,a4,0x13
   14ea0:	0009a483          	lw	s1,0(s3)
   14ea4:	0009a023          	sw	zero,0(s3)
   14ea8:	1806c863          	bltz	a3,15038 <__sflush_r+0x1e4>
   14eac:	01c42583          	lw	a1,28(s0)
   14eb0:	00000613          	li	a2,0
   14eb4:	00100693          	li	a3,1
   14eb8:	00098513          	mv	a0,s3
   14ebc:	000800e7          	jalr	a6
   14ec0:	fff00793          	li	a5,-1
   14ec4:	00050613          	mv	a2,a0
   14ec8:	1af50a63          	beq	a0,a5,1507c <__sflush_r+0x228>
   14ecc:	00c41783          	lh	a5,12(s0)
   14ed0:	02842803          	lw	a6,40(s0)
   14ed4:	0047f793          	andi	a5,a5,4
   14ed8:	00078e63          	beqz	a5,14ef4 <__sflush_r+0xa0>
   14edc:	00442703          	lw	a4,4(s0)
   14ee0:	03042783          	lw	a5,48(s0)
   14ee4:	40e60633          	sub	a2,a2,a4
   14ee8:	00078663          	beqz	a5,14ef4 <__sflush_r+0xa0>
   14eec:	03c42783          	lw	a5,60(s0)
   14ef0:	40f60633          	sub	a2,a2,a5
   14ef4:	01c42583          	lw	a1,28(s0)
   14ef8:	00000693          	li	a3,0
   14efc:	00098513          	mv	a0,s3
   14f00:	000800e7          	jalr	a6
   14f04:	fff00713          	li	a4,-1
   14f08:	00c41783          	lh	a5,12(s0)
   14f0c:	12e51a63          	bne	a0,a4,15040 <__sflush_r+0x1ec>
   14f10:	0009a683          	lw	a3,0(s3)
   14f14:	01d00713          	li	a4,29
   14f18:	18d76063          	bltu	a4,a3,15098 <__sflush_r+0x244>
   14f1c:	20400737          	lui	a4,0x20400
   14f20:	00170713          	addi	a4,a4,1 # 20400001 <__BSS_END__+0x203dc5ad>
   14f24:	00d75733          	srl	a4,a4,a3
   14f28:	00177713          	andi	a4,a4,1
   14f2c:	16070663          	beqz	a4,15098 <__sflush_r+0x244>
   14f30:	01042603          	lw	a2,16(s0)
   14f34:	fffff737          	lui	a4,0xfffff
   14f38:	7ff70713          	addi	a4,a4,2047 # fffff7ff <__BSS_END__+0xfffdbdab>
   14f3c:	00e7f733          	and	a4,a5,a4
   14f40:	00e41623          	sh	a4,12(s0)
   14f44:	00042223          	sw	zero,4(s0)
   14f48:	00c42023          	sw	a2,0(s0)
   14f4c:	01379713          	slli	a4,a5,0x13
   14f50:	00075463          	bgez	a4,14f58 <__sflush_r+0x104>
   14f54:	10068863          	beqz	a3,15064 <__sflush_r+0x210>
   14f58:	03042583          	lw	a1,48(s0)
   14f5c:	0099a023          	sw	s1,0(s3)
   14f60:	10058a63          	beqz	a1,15074 <__sflush_r+0x220>
   14f64:	04040793          	addi	a5,s0,64
   14f68:	00f58663          	beq	a1,a5,14f74 <__sflush_r+0x120>
   14f6c:	00098513          	mv	a0,s3
   14f70:	f49fb0ef          	jal	10eb8 <_free_r>
   14f74:	01412483          	lw	s1,20(sp)
   14f78:	02042823          	sw	zero,48(s0)
   14f7c:	01c12083          	lw	ra,28(sp)
   14f80:	01812403          	lw	s0,24(sp)
   14f84:	00c12983          	lw	s3,12(sp)
   14f88:	00000513          	li	a0,0
   14f8c:	02010113          	addi	sp,sp,32
   14f90:	00008067          	ret
   14f94:	01212823          	sw	s2,16(sp)
   14f98:	0105a903          	lw	s2,16(a1)
   14f9c:	08090a63          	beqz	s2,15030 <__sflush_r+0x1dc>
   14fa0:	00912a23          	sw	s1,20(sp)
   14fa4:	0005a483          	lw	s1,0(a1)
   14fa8:	00377713          	andi	a4,a4,3
   14fac:	0125a023          	sw	s2,0(a1)
   14fb0:	412484b3          	sub	s1,s1,s2
   14fb4:	00000793          	li	a5,0
   14fb8:	00071463          	bnez	a4,14fc0 <__sflush_r+0x16c>
   14fbc:	0145a783          	lw	a5,20(a1)
   14fc0:	00f42423          	sw	a5,8(s0)
   14fc4:	00904863          	bgtz	s1,14fd4 <__sflush_r+0x180>
   14fc8:	0640006f          	j	1502c <__sflush_r+0x1d8>
   14fcc:	00a90933          	add	s2,s2,a0
   14fd0:	04905e63          	blez	s1,1502c <__sflush_r+0x1d8>
   14fd4:	02442783          	lw	a5,36(s0)
   14fd8:	01c42583          	lw	a1,28(s0)
   14fdc:	00048693          	mv	a3,s1
   14fe0:	00090613          	mv	a2,s2
   14fe4:	00098513          	mv	a0,s3
   14fe8:	000780e7          	jalr	a5
   14fec:	40a484b3          	sub	s1,s1,a0
   14ff0:	fca04ee3          	bgtz	a0,14fcc <__sflush_r+0x178>
   14ff4:	00c41783          	lh	a5,12(s0)
   14ff8:	01012903          	lw	s2,16(sp)
   14ffc:	0407e793          	ori	a5,a5,64
   15000:	01c12083          	lw	ra,28(sp)
   15004:	00f41623          	sh	a5,12(s0)
   15008:	01812403          	lw	s0,24(sp)
   1500c:	01412483          	lw	s1,20(sp)
   15010:	00c12983          	lw	s3,12(sp)
   15014:	fff00513          	li	a0,-1
   15018:	02010113          	addi	sp,sp,32
   1501c:	00008067          	ret
   15020:	03c5a683          	lw	a3,60(a1)
   15024:	e6d046e3          	bgtz	a3,14e90 <__sflush_r+0x3c>
   15028:	f55ff06f          	j	14f7c <__sflush_r+0x128>
   1502c:	01412483          	lw	s1,20(sp)
   15030:	01012903          	lw	s2,16(sp)
   15034:	f49ff06f          	j	14f7c <__sflush_r+0x128>
   15038:	05042603          	lw	a2,80(s0)
   1503c:	e99ff06f          	j	14ed4 <__sflush_r+0x80>
   15040:	01042683          	lw	a3,16(s0)
   15044:	fffff737          	lui	a4,0xfffff
   15048:	7ff70713          	addi	a4,a4,2047 # fffff7ff <__BSS_END__+0xfffdbdab>
   1504c:	00e7f733          	and	a4,a5,a4
   15050:	00e41623          	sh	a4,12(s0)
   15054:	00042223          	sw	zero,4(s0)
   15058:	00d42023          	sw	a3,0(s0)
   1505c:	01379713          	slli	a4,a5,0x13
   15060:	ee075ce3          	bgez	a4,14f58 <__sflush_r+0x104>
   15064:	03042583          	lw	a1,48(s0)
   15068:	04a42823          	sw	a0,80(s0)
   1506c:	0099a023          	sw	s1,0(s3)
   15070:	ee059ae3          	bnez	a1,14f64 <__sflush_r+0x110>
   15074:	01412483          	lw	s1,20(sp)
   15078:	f05ff06f          	j	14f7c <__sflush_r+0x128>
   1507c:	0009a783          	lw	a5,0(s3)
   15080:	e40786e3          	beqz	a5,14ecc <__sflush_r+0x78>
   15084:	01d00713          	li	a4,29
   15088:	00e78c63          	beq	a5,a4,150a0 <__sflush_r+0x24c>
   1508c:	01600713          	li	a4,22
   15090:	00e78863          	beq	a5,a4,150a0 <__sflush_r+0x24c>
   15094:	00c41783          	lh	a5,12(s0)
   15098:	0407e793          	ori	a5,a5,64
   1509c:	f65ff06f          	j	15000 <__sflush_r+0x1ac>
   150a0:	0099a023          	sw	s1,0(s3)
   150a4:	01412483          	lw	s1,20(sp)
   150a8:	ed5ff06f          	j	14f7c <__sflush_r+0x128>

000150ac <_fflush_r>:
   150ac:	fe010113          	addi	sp,sp,-32
   150b0:	00812c23          	sw	s0,24(sp)
   150b4:	00112e23          	sw	ra,28(sp)
   150b8:	00050413          	mv	s0,a0
   150bc:	00050663          	beqz	a0,150c8 <_fflush_r+0x1c>
   150c0:	03452783          	lw	a5,52(a0)
   150c4:	02078a63          	beqz	a5,150f8 <_fflush_r+0x4c>
   150c8:	00c59783          	lh	a5,12(a1)
   150cc:	00079c63          	bnez	a5,150e4 <_fflush_r+0x38>
   150d0:	01c12083          	lw	ra,28(sp)
   150d4:	01812403          	lw	s0,24(sp)
   150d8:	00000513          	li	a0,0
   150dc:	02010113          	addi	sp,sp,32
   150e0:	00008067          	ret
   150e4:	00040513          	mv	a0,s0
   150e8:	01812403          	lw	s0,24(sp)
   150ec:	01c12083          	lw	ra,28(sp)
   150f0:	02010113          	addi	sp,sp,32
   150f4:	d61ff06f          	j	14e54 <__sflush_r>
   150f8:	00b12623          	sw	a1,12(sp)
   150fc:	c3cfb0ef          	jal	10538 <__sinit>
   15100:	00c12583          	lw	a1,12(sp)
   15104:	fc5ff06f          	j	150c8 <_fflush_r+0x1c>

00015108 <fflush>:
   15108:	06050063          	beqz	a0,15168 <fflush+0x60>
   1510c:	00050593          	mv	a1,a0
   15110:	f0c1a503          	lw	a0,-244(gp) # 2371c <_impure_ptr>
   15114:	00050663          	beqz	a0,15120 <fflush+0x18>
   15118:	03452783          	lw	a5,52(a0)
   1511c:	00078c63          	beqz	a5,15134 <fflush+0x2c>
   15120:	00c59783          	lh	a5,12(a1)
   15124:	00079663          	bnez	a5,15130 <fflush+0x28>
   15128:	00000513          	li	a0,0
   1512c:	00008067          	ret
   15130:	d25ff06f          	j	14e54 <__sflush_r>
   15134:	fe010113          	addi	sp,sp,-32
   15138:	00b12623          	sw	a1,12(sp)
   1513c:	00a12423          	sw	a0,8(sp)
   15140:	00112e23          	sw	ra,28(sp)
   15144:	bf4fb0ef          	jal	10538 <__sinit>
   15148:	00c12583          	lw	a1,12(sp)
   1514c:	00812503          	lw	a0,8(sp)
   15150:	00c59783          	lh	a5,12(a1)
   15154:	02079863          	bnez	a5,15184 <fflush+0x7c>
   15158:	01c12083          	lw	ra,28(sp)
   1515c:	00000513          	li	a0,0
   15160:	02010113          	addi	sp,sp,32
   15164:	00008067          	ret
   15168:	00023637          	lui	a2,0x23
   1516c:	000155b7          	lui	a1,0x15
   15170:	00023537          	lui	a0,0x23
   15174:	01060613          	addi	a2,a2,16 # 23010 <__sglue>
   15178:	0ac58593          	addi	a1,a1,172 # 150ac <_fflush_r>
   1517c:	02050513          	addi	a0,a0,32 # 23020 <_impure_data>
   15180:	c14fb06f          	j	10594 <_fwalk_sglue>
   15184:	01c12083          	lw	ra,28(sp)
   15188:	02010113          	addi	sp,sp,32
   1518c:	cc9ff06f          	j	14e54 <__sflush_r>

00015190 <__sfvwrite_r>:
   15190:	00862783          	lw	a5,8(a2)
   15194:	24078263          	beqz	a5,153d8 <__sfvwrite_r+0x248>
   15198:	00c59703          	lh	a4,12(a1)
   1519c:	fd010113          	addi	sp,sp,-48
   151a0:	02812423          	sw	s0,40(sp)
   151a4:	01412c23          	sw	s4,24(sp)
   151a8:	01512a23          	sw	s5,20(sp)
   151ac:	02112623          	sw	ra,44(sp)
   151b0:	00877793          	andi	a5,a4,8
   151b4:	00060a13          	mv	s4,a2
   151b8:	00050a93          	mv	s5,a0
   151bc:	00058413          	mv	s0,a1
   151c0:	0a078463          	beqz	a5,15268 <__sfvwrite_r+0xd8>
   151c4:	0105a783          	lw	a5,16(a1)
   151c8:	0a078063          	beqz	a5,15268 <__sfvwrite_r+0xd8>
   151cc:	02912223          	sw	s1,36(sp)
   151d0:	03212023          	sw	s2,32(sp)
   151d4:	01312e23          	sw	s3,28(sp)
   151d8:	01612823          	sw	s6,16(sp)
   151dc:	00277793          	andi	a5,a4,2
   151e0:	000a2483          	lw	s1,0(s4)
   151e4:	0a078a63          	beqz	a5,15298 <__sfvwrite_r+0x108>
   151e8:	80000b37          	lui	s6,0x80000
   151ec:	c00b0b13          	addi	s6,s6,-1024 # 7ffffc00 <__BSS_END__+0x7ffdc1ac>
   151f0:	00000993          	li	s3,0
   151f4:	00000913          	li	s2,0
   151f8:	00098613          	mv	a2,s3
   151fc:	000a8513          	mv	a0,s5
   15200:	1c090463          	beqz	s2,153c8 <__sfvwrite_r+0x238>
   15204:	800007b7          	lui	a5,0x80000
   15208:	00090693          	mv	a3,s2
   1520c:	012b7463          	bgeu	s6,s2,15214 <__sfvwrite_r+0x84>
   15210:	c0078693          	addi	a3,a5,-1024 # 7ffffc00 <__BSS_END__+0x7ffdc1ac>
   15214:	02442783          	lw	a5,36(s0)
   15218:	01c42583          	lw	a1,28(s0)
   1521c:	000780e7          	jalr	a5
   15220:	42a05a63          	blez	a0,15654 <__sfvwrite_r+0x4c4>
   15224:	008a2783          	lw	a5,8(s4)
   15228:	00a989b3          	add	s3,s3,a0
   1522c:	40a90933          	sub	s2,s2,a0
   15230:	40a787b3          	sub	a5,a5,a0
   15234:	00fa2423          	sw	a5,8(s4)
   15238:	fc0790e3          	bnez	a5,151f8 <__sfvwrite_r+0x68>
   1523c:	02412483          	lw	s1,36(sp)
   15240:	02012903          	lw	s2,32(sp)
   15244:	01c12983          	lw	s3,28(sp)
   15248:	01012b03          	lw	s6,16(sp)
   1524c:	00000513          	li	a0,0
   15250:	02c12083          	lw	ra,44(sp)
   15254:	02812403          	lw	s0,40(sp)
   15258:	01812a03          	lw	s4,24(sp)
   1525c:	01412a83          	lw	s5,20(sp)
   15260:	03010113          	addi	sp,sp,48
   15264:	00008067          	ret
   15268:	00040593          	mv	a1,s0
   1526c:	000a8513          	mv	a0,s5
   15270:	408000ef          	jal	15678 <__swsetup_r>
   15274:	28051063          	bnez	a0,154f4 <__sfvwrite_r+0x364>
   15278:	00c41703          	lh	a4,12(s0)
   1527c:	02912223          	sw	s1,36(sp)
   15280:	03212023          	sw	s2,32(sp)
   15284:	01312e23          	sw	s3,28(sp)
   15288:	01612823          	sw	s6,16(sp)
   1528c:	00277793          	andi	a5,a4,2
   15290:	000a2483          	lw	s1,0(s4)
   15294:	f4079ae3          	bnez	a5,151e8 <__sfvwrite_r+0x58>
   15298:	01712623          	sw	s7,12(sp)
   1529c:	01812423          	sw	s8,8(sp)
   152a0:	00177793          	andi	a5,a4,1
   152a4:	12079e63          	bnez	a5,153e0 <__sfvwrite_r+0x250>
   152a8:	80000bb7          	lui	s7,0x80000
   152ac:	01912223          	sw	s9,4(sp)
   152b0:	fffb8b93          	addi	s7,s7,-1 # 7fffffff <__BSS_END__+0x7ffdc5ab>
   152b4:	00000b13          	li	s6,0
   152b8:	00000913          	li	s2,0
   152bc:	0e090e63          	beqz	s2,153b8 <__sfvwrite_r+0x228>
   152c0:	20077793          	andi	a5,a4,512
   152c4:	00042503          	lw	a0,0(s0)
   152c8:	00842c03          	lw	s8,8(s0)
   152cc:	22078863          	beqz	a5,154fc <__sfvwrite_r+0x36c>
   152d0:	000c0c93          	mv	s9,s8
   152d4:	2f896663          	bltu	s2,s8,155c0 <__sfvwrite_r+0x430>
   152d8:	48077793          	andi	a5,a4,1152
   152dc:	08078a63          	beqz	a5,15370 <__sfvwrite_r+0x1e0>
   152e0:	01442683          	lw	a3,20(s0)
   152e4:	01042583          	lw	a1,16(s0)
   152e8:	00169793          	slli	a5,a3,0x1
   152ec:	00d787b3          	add	a5,a5,a3
   152f0:	01f7d993          	srli	s3,a5,0x1f
   152f4:	40b50c33          	sub	s8,a0,a1
   152f8:	00f989b3          	add	s3,s3,a5
   152fc:	001c0793          	addi	a5,s8,1
   15300:	4019d993          	srai	s3,s3,0x1
   15304:	012787b3          	add	a5,a5,s2
   15308:	00098613          	mv	a2,s3
   1530c:	00f9f663          	bgeu	s3,a5,15318 <__sfvwrite_r+0x188>
   15310:	00078993          	mv	s3,a5
   15314:	00078613          	mv	a2,a5
   15318:	40077713          	andi	a4,a4,1024
   1531c:	2e070863          	beqz	a4,1560c <__sfvwrite_r+0x47c>
   15320:	00060593          	mv	a1,a2
   15324:	000a8513          	mv	a0,s5
   15328:	e81fb0ef          	jal	111a8 <_malloc_r>
   1532c:	00050c93          	mv	s9,a0
   15330:	32050663          	beqz	a0,1565c <__sfvwrite_r+0x4cc>
   15334:	01042583          	lw	a1,16(s0)
   15338:	000c0613          	mv	a2,s8
   1533c:	0ad000ef          	jal	15be8 <memcpy>
   15340:	00c45783          	lhu	a5,12(s0)
   15344:	b7f7f793          	andi	a5,a5,-1153
   15348:	0807e793          	ori	a5,a5,128
   1534c:	00f41623          	sh	a5,12(s0)
   15350:	018c8533          	add	a0,s9,s8
   15354:	41898c33          	sub	s8,s3,s8
   15358:	01942823          	sw	s9,16(s0)
   1535c:	01842423          	sw	s8,8(s0)
   15360:	00a42023          	sw	a0,0(s0)
   15364:	01342a23          	sw	s3,20(s0)
   15368:	00090c13          	mv	s8,s2
   1536c:	00090c93          	mv	s9,s2
   15370:	000b0593          	mv	a1,s6
   15374:	000c8613          	mv	a2,s9
   15378:	748000ef          	jal	15ac0 <memmove>
   1537c:	00042783          	lw	a5,0(s0)
   15380:	00842703          	lw	a4,8(s0)
   15384:	00090993          	mv	s3,s2
   15388:	019787b3          	add	a5,a5,s9
   1538c:	00f42023          	sw	a5,0(s0)
   15390:	008a2783          	lw	a5,8(s4)
   15394:	41870733          	sub	a4,a4,s8
   15398:	00e42423          	sw	a4,8(s0)
   1539c:	413787b3          	sub	a5,a5,s3
   153a0:	00fa2423          	sw	a5,8(s4)
   153a4:	00000913          	li	s2,0
   153a8:	013b0b33          	add	s6,s6,s3
   153ac:	1a078663          	beqz	a5,15558 <__sfvwrite_r+0x3c8>
   153b0:	00c41703          	lh	a4,12(s0)
   153b4:	f00916e3          	bnez	s2,152c0 <__sfvwrite_r+0x130>
   153b8:	0004ab03          	lw	s6,0(s1)
   153bc:	0044a903          	lw	s2,4(s1)
   153c0:	00848493          	addi	s1,s1,8
   153c4:	ef9ff06f          	j	152bc <__sfvwrite_r+0x12c>
   153c8:	0004a983          	lw	s3,0(s1)
   153cc:	0044a903          	lw	s2,4(s1)
   153d0:	00848493          	addi	s1,s1,8
   153d4:	e25ff06f          	j	151f8 <__sfvwrite_r+0x68>
   153d8:	00000513          	li	a0,0
   153dc:	00008067          	ret
   153e0:	00000b13          	li	s6,0
   153e4:	00000513          	li	a0,0
   153e8:	00000c13          	li	s8,0
   153ec:	00000993          	li	s3,0
   153f0:	08098263          	beqz	s3,15474 <__sfvwrite_r+0x2e4>
   153f4:	08050a63          	beqz	a0,15488 <__sfvwrite_r+0x2f8>
   153f8:	000b0793          	mv	a5,s6
   153fc:	00098b93          	mv	s7,s3
   15400:	0137f463          	bgeu	a5,s3,15408 <__sfvwrite_r+0x278>
   15404:	00078b93          	mv	s7,a5
   15408:	00042503          	lw	a0,0(s0)
   1540c:	01042783          	lw	a5,16(s0)
   15410:	01442683          	lw	a3,20(s0)
   15414:	00a7f863          	bgeu	a5,a0,15424 <__sfvwrite_r+0x294>
   15418:	00842903          	lw	s2,8(s0)
   1541c:	01268933          	add	s2,a3,s2
   15420:	09794463          	blt	s2,s7,154a8 <__sfvwrite_r+0x318>
   15424:	1adbce63          	blt	s7,a3,155e0 <__sfvwrite_r+0x450>
   15428:	02442783          	lw	a5,36(s0)
   1542c:	01c42583          	lw	a1,28(s0)
   15430:	000c0613          	mv	a2,s8
   15434:	000a8513          	mv	a0,s5
   15438:	000780e7          	jalr	a5
   1543c:	00050913          	mv	s2,a0
   15440:	08a05863          	blez	a0,154d0 <__sfvwrite_r+0x340>
   15444:	412b0b33          	sub	s6,s6,s2
   15448:	00100513          	li	a0,1
   1544c:	180b0063          	beqz	s6,155cc <__sfvwrite_r+0x43c>
   15450:	008a2783          	lw	a5,8(s4)
   15454:	012c0c33          	add	s8,s8,s2
   15458:	412989b3          	sub	s3,s3,s2
   1545c:	412787b3          	sub	a5,a5,s2
   15460:	00fa2423          	sw	a5,8(s4)
   15464:	f80796e3          	bnez	a5,153f0 <__sfvwrite_r+0x260>
   15468:	00c12b83          	lw	s7,12(sp)
   1546c:	00812c03          	lw	s8,8(sp)
   15470:	dcdff06f          	j	1523c <__sfvwrite_r+0xac>
   15474:	0044a983          	lw	s3,4(s1)
   15478:	00048793          	mv	a5,s1
   1547c:	00848493          	addi	s1,s1,8
   15480:	fe098ae3          	beqz	s3,15474 <__sfvwrite_r+0x2e4>
   15484:	0007ac03          	lw	s8,0(a5)
   15488:	00098613          	mv	a2,s3
   1548c:	00a00593          	li	a1,10
   15490:	000c0513          	mv	a0,s8
   15494:	388000ef          	jal	1581c <memchr>
   15498:	1a050863          	beqz	a0,15648 <__sfvwrite_r+0x4b8>
   1549c:	00150513          	addi	a0,a0,1
   154a0:	41850b33          	sub	s6,a0,s8
   154a4:	f55ff06f          	j	153f8 <__sfvwrite_r+0x268>
   154a8:	000c0593          	mv	a1,s8
   154ac:	00090613          	mv	a2,s2
   154b0:	610000ef          	jal	15ac0 <memmove>
   154b4:	00042783          	lw	a5,0(s0)
   154b8:	00040593          	mv	a1,s0
   154bc:	000a8513          	mv	a0,s5
   154c0:	012787b3          	add	a5,a5,s2
   154c4:	00f42023          	sw	a5,0(s0)
   154c8:	be5ff0ef          	jal	150ac <_fflush_r>
   154cc:	f6050ce3          	beqz	a0,15444 <__sfvwrite_r+0x2b4>
   154d0:	00c41783          	lh	a5,12(s0)
   154d4:	00c12b83          	lw	s7,12(sp)
   154d8:	00812c03          	lw	s8,8(sp)
   154dc:	02412483          	lw	s1,36(sp)
   154e0:	02012903          	lw	s2,32(sp)
   154e4:	01c12983          	lw	s3,28(sp)
   154e8:	01012b03          	lw	s6,16(sp)
   154ec:	0407e793          	ori	a5,a5,64
   154f0:	00f41623          	sh	a5,12(s0)
   154f4:	fff00513          	li	a0,-1
   154f8:	d59ff06f          	j	15250 <__sfvwrite_r+0xc0>
   154fc:	01042783          	lw	a5,16(s0)
   15500:	06a7e463          	bltu	a5,a0,15568 <__sfvwrite_r+0x3d8>
   15504:	01442583          	lw	a1,20(s0)
   15508:	06b96063          	bltu	s2,a1,15568 <__sfvwrite_r+0x3d8>
   1550c:	00090993          	mv	s3,s2
   15510:	012bf463          	bgeu	s7,s2,15518 <__sfvwrite_r+0x388>
   15514:	000b8993          	mv	s3,s7
   15518:	00098513          	mv	a0,s3
   1551c:	6550c0ef          	jal	22370 <__modsi3>
   15520:	02442783          	lw	a5,36(s0)
   15524:	01c42583          	lw	a1,28(s0)
   15528:	40a986b3          	sub	a3,s3,a0
   1552c:	000b0613          	mv	a2,s6
   15530:	000a8513          	mv	a0,s5
   15534:	000780e7          	jalr	a5
   15538:	00050993          	mv	s3,a0
   1553c:	06a05863          	blez	a0,155ac <__sfvwrite_r+0x41c>
   15540:	008a2783          	lw	a5,8(s4)
   15544:	41390933          	sub	s2,s2,s3
   15548:	013b0b33          	add	s6,s6,s3
   1554c:	413787b3          	sub	a5,a5,s3
   15550:	00fa2423          	sw	a5,8(s4)
   15554:	e4079ee3          	bnez	a5,153b0 <__sfvwrite_r+0x220>
   15558:	00c12b83          	lw	s7,12(sp)
   1555c:	00812c03          	lw	s8,8(sp)
   15560:	00412c83          	lw	s9,4(sp)
   15564:	cd9ff06f          	j	1523c <__sfvwrite_r+0xac>
   15568:	000c0993          	mv	s3,s8
   1556c:	01897463          	bgeu	s2,s8,15574 <__sfvwrite_r+0x3e4>
   15570:	00090993          	mv	s3,s2
   15574:	00098613          	mv	a2,s3
   15578:	000b0593          	mv	a1,s6
   1557c:	544000ef          	jal	15ac0 <memmove>
   15580:	00042703          	lw	a4,0(s0)
   15584:	00842783          	lw	a5,8(s0)
   15588:	01370733          	add	a4,a4,s3
   1558c:	413787b3          	sub	a5,a5,s3
   15590:	00e42023          	sw	a4,0(s0)
   15594:	00f42423          	sw	a5,8(s0)
   15598:	fa0794e3          	bnez	a5,15540 <__sfvwrite_r+0x3b0>
   1559c:	00040593          	mv	a1,s0
   155a0:	000a8513          	mv	a0,s5
   155a4:	b09ff0ef          	jal	150ac <_fflush_r>
